Archive member included because of file (symbol)

/media/BBB/lib/gcc/arm-linux-gnueabihf/4.9.1/libgcc.a(_divsi3.o)
                              platform/common/menu_pico.o (__aeabi_idiv)
/media/BBB/lib/gcc/arm-linux-gnueabihf/4.9.1/libgcc.a(_aeabi_ldivmod.o)
                              pico/32x/sh2soc.o (__aeabi_ldivmod)
/media/BBB/lib/gcc/arm-linux-gnueabihf/4.9.1/libgcc.a(_dvmd_lnx.o)
                              /media/BBB/lib/gcc/arm-linux-gnueabihf/4.9.1/libgcc.a(_divsi3.o) (__aeabi_idiv0)
/media/BBB/lib/gcc/arm-linux-gnueabihf/4.9.1/libgcc.a(bpabi.o)
                              /media/BBB/lib/gcc/arm-linux-gnueabihf/4.9.1/libgcc.a(_aeabi_ldivmod.o) (__gnu_ldivmod_helper)
/media/BBB/lib/gcc/arm-linux-gnueabihf/4.9.1/libgcc.a(_divdi3.o)
                              /media/BBB/lib/gcc/arm-linux-gnueabihf/4.9.1/libgcc.a(bpabi.o) (__divdi3)
/media/BBB/lib/gcc/arm-linux-gnueabihf/4.9.1/libgcc.a(_udivdi3.o)
                              /media/BBB/lib/gcc/arm-linux-gnueabihf/4.9.1/libgcc.a(bpabi.o) (__udivdi3)
/usr/lib/arm-linux-gnueabihf/libc_nonshared.a(elf-init.oS)
                              /usr/lib/arm-linux-gnueabihf/crt1.o (__libc_csu_init)

Allocating common symbols
Common symbol       size              file

p32x_bios_s         0x4               pico/32x/memory.o
z80_write_map       0x20              pico/z80if.o
last_z80_sync       0x4               pico/pico.o
DrawScanline        0x4               pico/draw.o
rom_fname_reload    0x4               platform/common/emu.o
HighLnSpr           0x1e00            pico/draw.o
PicoAutoRgnOrder    0x4               pico/pico.o
SekCycleCnt         0x4               pico/sek.o
carthw_chunks       0x4               pico/state.o
PicoSkipFrame       0x4               pico/pico.o
pcd_event_times     0x10              pico/cd/mcd.o
currentConfig       0x6c              platform/common/emu.o
plat_sdl_resize_cb  0x4               platform/libpicofe/plat_sdl.o
timer_a_step        0x4               pico/sound/sound.o
SekCycleCntS68k     0x4               pico/cd/sek.o
sh2s                0x25b8            pico/32x/32x.o
plat_target         0x34              platform/libpicofe/plat_dummy.o
ym_tl_tab           0x34000           pico/sound/ym2612.o
SRam                0x18              pico/pico.o
PicoPicohw          0x208             pico/pico/pico.o
s68k_read16_map     0x400             pico/cd/memory.o
z80_scanline        0x4               pico/pico.o
PicoQuirks          0x4               pico/pico.o
plat_sdl_gl_active  0x4               platform/libpicofe/plat_sdl.o
plat_sdl_screen     0x4               platform/libpicofe/plat_sdl.o
g_menuscreen_h      0x4               platform/common/menu_pico.o
SekCycleAimS68k     0x4               pico/cd/sek.o
g_menubg_src_ptr    0x4               platform/common/menu_pico.o
PicoAHW             0x4               pico/pico.o
DrawLineDestIncrement
                    0x4               pico/draw.o
scanlines_total     0x4               pico/pico.o
m68k_read16_map     0x400             pico/memory.o
rendstatus_old      0x4               pico/draw.o
PicoCpuCS68k        0xb0              pico/cd/sek.o
PicoCartMemSetup    0x4               pico/cart.o
PicoOpt             0x4               pico/pico.o
HighPreSpr          0x284             pico/draw.o
plat_sdl_overlay    0x4               platform/libpicofe/plat_sdl.o
timer_a_next_oflow  0x4               pico/sound/sound.o
z80_read_map        0x20              pico/z80if.o
g_autostateld_opt   0x4               platform/common/menu_pico.o
z80_cycle_aim       0x4               pico/pico.o
p32x_bios_m         0x4               pico/32x/memory.o
timer_b_next_oflow  0x4               pico/sound/sound.o
g_menuscreen_ptr    0x4               platform/common/menu_pico.o
PicoCpuCM68k        0xb0              pico/sek.o
z80_cycle_cnt       0x4               pico/pico.o
plat_sdl_quit_cb    0x4               platform/libpicofe/plat_sdl.o
PicoStateProgressCB
                    0x4               pico/state.o
drZ80               0x7c              pico/z80if.o
Pico32xDrawMode     0x4               pico/32x/draw.o
PicoLoadStateHook   0x4               pico/state.o
defaultConfig       0x6c              platform/common/emu.o
m68k_write16_map    0x400             pico/memory.o
s68k_read8_map      0x400             pico/cd/memory.o
Pico                0x222c8           pico/pico.o
s68k_write16_map    0x400             pico/cd/memory.o
PicoScan32xBegin    0x4               pico/32x/draw.o
rendlines           0x4               pico/draw.o
SekCycleAim         0x4               pico/sek.o
m68k_write8_map     0x400             pico/memory.o
line_base_cycles    0x4               pico/videoport.o
tcache              0x200000          cpu/drc/cmn.o
PicoScan32xEnd      0x4               pico/32x/draw.o
in_evdev_allow_abs_only
                    0x4               platform/libpicofe/linux/in_evdev.o
g_menuscreen_w      0x4               platform/common/menu_pico.o
Pico32xMem          0x4               platform/linux/emu.o
cdd                 0x66c             pico/cd/cdd.o
pico_inp_mode       0x4               platform/common/emu.o
timer_b_step        0x4               pico/sound/sound.o
p32x_event_times    0xc               pico/32x/32x.o
ym2612              0xbe0             pico/sound/ym2612.o
s68k_write8_map     0x400             pico/cd/memory.o
PicoGameLoaded      0x4               pico/cart.o
sndout_current      0x1c              platform/libpicofe/sndout.o
cdda_out_buffer     0x1200            pico/sound/sound.o
PicoPadInt          0x8               pico/pico.o
g_screen_ptr        0x4               platform/common/emu.o
PicoPad             0x8               pico/pico.o
ym_tl_tab2          0x1a00            pico/sound/ym2612.o
z80_scanline_cycles
                    0x4               pico/pico.o
rendstatus          0x4               pico/draw.o
m68k_read8_map      0x400             pico/memory.o
rom_fname_loaded    0x200             platform/common/emu.o
PicoCartUnloadHook  0x4               pico/cart.o
Pico32x             0xc0              pico/32x/32x.o
sn76496_regs        0x4               pico/sound/sn76496.o
flip_after_sync     0x4               platform/common/emu.o
HighPal             0x200             pico/draw.o
g_argv              0x4               platform/common/main.o
p32x_bios_g         0x4               pico/32x/memory.o
PicoRegionOverride  0x4               pico/pico.o
g_menubg_ptr        0x4               platform/common/menu_pico.o
emustatus           0x4               pico/pico.o
media_id_header     0x100             pico/media.o

Discarded input sections

 .rodata.cst4   0x00000000        0x4 /usr/lib/arm-linux-gnueabihf/crt1.o
 .ARM.extab     0x00000000        0x0 /usr/lib/arm-linux-gnueabihf/crt1.o
 .data          0x00000000        0x4 /usr/lib/arm-linux-gnueabihf/crt1.o
 .bss           0x00000000        0x0 /usr/lib/arm-linux-gnueabihf/crt1.o
 .note.GNU-stack
                0x00000000        0x0 /usr/lib/arm-linux-gnueabihf/crt1.o
 .gnu_debuglink
                0x00000000        0xc /usr/lib/arm-linux-gnueabihf/crt1.o
 .data          0x00000000        0x0 /usr/lib/arm-linux-gnueabihf/crti.o
 .bss           0x00000000        0x0 /usr/lib/arm-linux-gnueabihf/crti.o
 .note.GNU-stack
                0x00000000        0x0 /usr/lib/arm-linux-gnueabihf/crti.o
 .gnu_debuglink
                0x00000000        0xc /usr/lib/arm-linux-gnueabihf/crti.o
 .data          0x00000000        0x4 /media/BBB/lib/gcc/arm-linux-gnueabihf/4.9.1/crtbegin.o
 .note.GNU-stack
                0x00000000        0x0 /media/BBB/lib/gcc/arm-linux-gnueabihf/4.9.1/crtbegin.o
 .text          0x00000000        0x0 platform/linux/emu.o
 .bss           0x00000000        0x0 platform/linux/emu.o
 .note.GNU-stack
                0x00000000        0x0 platform/linux/emu.o
 .text          0x00000000        0x0 platform/linux/blit.o
 .data          0x00000000        0x0 platform/linux/blit.o
 .bss           0x00000000        0x0 platform/linux/blit.o
 .text.bgr444_to_rgb32
                0x00000000       0x44 platform/linux/blit.o
 .text.bgr444_to_rgb32_sh
                0x00000000       0x8c platform/linux/blit.o
 .text.vidcpy_m2
                0x00000000      0x14c platform/linux/blit.o
 .text.vidcpy_m2_rot
                0x00000000        0x4 platform/linux/blit.o
 .text.rotated_blit8
                0x00000000        0x4 platform/linux/blit.o
 .text.rotated_blit16
                0x00000000        0x4 platform/linux/blit.o
 .debug_info    0x00000000      0x26a platform/linux/blit.o
 .debug_abbrev  0x00000000       0xe2 platform/linux/blit.o
 .debug_loc     0x00000000      0x452 platform/linux/blit.o
 .debug_aranges
                0x00000000       0x48 platform/linux/blit.o
 .debug_ranges  0x00000000       0x38 platform/linux/blit.o
 .debug_line    0x00000000       0xed platform/linux/blit.o
 .debug_str     0x00000000      0xa07 platform/linux/blit.o
 .comment       0x00000000       0x12 platform/linux/blit.o
 .note.GNU-stack
                0x00000000        0x0 platform/linux/blit.o
 .ARM.attributes
                0x00000000       0x33 platform/linux/blit.o
 .debug_frame   0x00000000       0x8c platform/linux/blit.o
 .text          0x00000000        0x0 platform/common/plat_sdl.o
 .data          0x00000000        0x0 platform/common/plat_sdl.o
 .text.bgr_to_uyvy_init
                0x00000000      0x104 platform/common/plat_sdl.o
 .note.GNU-stack
                0x00000000        0x0 platform/common/plat_sdl.o
 .text          0x00000000        0x0 platform/libpicofe/plat_sdl.o
 .text.plat_sdl_overlay_clear
                0x00000000       0x6c platform/libpicofe/plat_sdl.o
 .note.GNU-stack
                0x00000000        0x0 platform/libpicofe/plat_sdl.o
 .text          0x00000000        0x0 platform/libpicofe/in_sdl.o
 .data          0x00000000        0x0 platform/libpicofe/in_sdl.o
 .note.GNU-stack
                0x00000000        0x0 platform/libpicofe/in_sdl.o
 .text          0x00000000        0x0 platform/libpicofe/plat_dummy.o
 .data          0x00000000        0x0 platform/libpicofe/plat_dummy.o
 .bss           0x00000000        0x0 platform/libpicofe/plat_dummy.o
 .text.plat_target_setup_input
                0x00000000        0x4 platform/libpicofe/plat_dummy.o
 .note.GNU-stack
                0x00000000        0x0 platform/libpicofe/plat_dummy.o
 .text          0x00000000        0x0 platform/common/main.o
 .bss           0x00000000        0x0 platform/common/main.o
 .note.GNU-stack
                0x00000000        0x0 platform/common/main.o
 .text          0x00000000        0x0 platform/common/emu.o
 .text.emu_get_game_name
                0x00000000      0x11c platform/common/emu.o
 .text.emu_make_path
                0x00000000       0x68 platform/common/emu.o
 .text.emu_text_out8
                0x00000000       0xe0 platform/common/emu.o
 .text.emu_text_out8_rot
                0x00000000      0x124 platform/common/emu.o
 .text.emu_text_out16_rot
                0x00000000      0x17c platform/common/emu.o
 .text.emu_set_fastforward
                0x00000000       0xc8 platform/common/emu.o
 .note.GNU-stack
                0x00000000        0x0 platform/common/emu.o
 .text          0x00000000        0x0 platform/common/menu_pico.o
 .text.draw_frame_credits
                0x00000000      0x148 platform/common/menu_pico.o
 .note.GNU-stack
                0x00000000        0x0 platform/common/menu_pico.o
 .text          0x00000000        0x0 platform/common/config_file.o
 .data          0x00000000        0x0 platform/common/config_file.o
 .bss           0x00000000        0x0 platform/common/config_file.o
 .note.GNU-stack
                0x00000000        0x0 platform/common/config_file.o
 .text          0x00000000        0x0 platform/libpicofe/input.o
 .data          0x00000000        0x0 platform/libpicofe/input.o
 .text.in_combos_find
                0x00000000       0x98 platform/libpicofe/input.o
 .text.in_combos_do
                0x00000000       0xc4 platform/libpicofe/input.o
 .text.in_update_analog
                0x00000000       0x44 platform/libpicofe/input.o
 .text.in_get_dev_def_binds
                0x00000000       0x24 platform/libpicofe/input.o
 .text.in_name_to_id
                0x00000000       0x6c platform/libpicofe/input.o
 .text.in_get_key_code
                0x00000000       0x84 platform/libpicofe/input.o
 .text.in_clean_binds
                0x00000000       0x98 platform/libpicofe/input.o
 .text.in_debug_dump
                0x00000000       0xb4 platform/libpicofe/input.o
 .note.GNU-stack
                0x00000000        0x0 platform/libpicofe/input.o
 .text          0x00000000        0x0 platform/libpicofe/readpng.o
 .data          0x00000000        0x0 platform/libpicofe/readpng.o
 .bss           0x00000000        0x0 platform/libpicofe/readpng.o
 .text.writepng
                0x00000000      0x280 platform/libpicofe/readpng.o
 .note.GNU-stack
                0x00000000        0x0 platform/libpicofe/readpng.o
 .text          0x00000000        0x0 platform/libpicofe/fonts.o
 .bss           0x00000000        0x0 platform/libpicofe/fonts.o
 .text.basic_text_out16_nf
                0x00000000      0x1f8 platform/libpicofe/fonts.o
 .text.basic_text_out_uyvy_nf
                0x00000000      0x1bc platform/libpicofe/fonts.o
 .text.basic_text_out16
                0x00000000       0x58 platform/libpicofe/fonts.o
 .note.GNU-stack
                0x00000000        0x0 platform/libpicofe/fonts.o
 .text          0x00000000        0x0 platform/libpicofe/linux/in_evdev.o
 .data          0x00000000        0x0 platform/libpicofe/linux/in_evdev.o
 .bss           0x00000000        0x0 platform/libpicofe/linux/in_evdev.o
 .text.in_evdev_get_key_names
                0x00000000       0x24 platform/libpicofe/linux/in_evdev.o
 .text.in_evdev_get_config
                0x00000000       0x18 platform/libpicofe/linux/in_evdev.o
 .text.in_evdev_menu_translate
                0x00000000      0x124 platform/libpicofe/linux/in_evdev.o
 .text.in_evdev_update_keycode
                0x00000000      0x184 platform/libpicofe/linux/in_evdev.o
 .text.in_evdev_update_analog
                0x00000000       0x70 platform/libpicofe/linux/in_evdev.o
 .text.in_evdev_update
                0x00000000      0x2a0 platform/libpicofe/linux/in_evdev.o
 .text.in_evdev_clean_binds
                0x00000000       0xf0 platform/libpicofe/linux/in_evdev.o
 .text.in_evdev_free
                0x00000000       0x24 platform/libpicofe/linux/in_evdev.o
 .text.in_evdev_probe
                0x00000000      0x424 platform/libpicofe/linux/in_evdev.o
 .text.in_evdev_set_config
                0x00000000      0x148 platform/libpicofe/linux/in_evdev.o
 .text.in_evdev_init
                0x00000000       0x50 platform/libpicofe/linux/in_evdev.o
 .rodata        0x00000000      0xc3c platform/libpicofe/linux/in_evdev.o
 .rodata.str1.4
                0x00000000      0x624 platform/libpicofe/linux/in_evdev.o
 .debug_info    0x00000000     0x16c2 platform/libpicofe/linux/in_evdev.o
 .debug_abbrev  0x00000000      0x43e platform/libpicofe/linux/in_evdev.o
 .debug_loc     0x00000000     0x116a platform/libpicofe/linux/in_evdev.o
 .debug_aranges
                0x00000000       0x70 platform/libpicofe/linux/in_evdev.o
 .debug_ranges  0x00000000       0xf8 platform/libpicofe/linux/in_evdev.o
 .debug_line    0x00000000      0x4fc platform/libpicofe/linux/in_evdev.o
 .debug_str     0x00000000     0x1113 platform/libpicofe/linux/in_evdev.o
 .comment       0x00000000       0x12 platform/libpicofe/linux/in_evdev.o
 .note.GNU-stack
                0x00000000        0x0 platform/libpicofe/linux/in_evdev.o
 .ARM.attributes
                0x00000000       0x33 platform/libpicofe/linux/in_evdev.o
 .debug_frame   0x00000000      0x1a0 platform/libpicofe/linux/in_evdev.o
 COMMON         0x00000000        0x4 platform/libpicofe/linux/in_evdev.o
 .text          0x00000000        0x0 platform/libpicofe/linux/plat.o
 .data          0x00000000        0x0 platform/libpicofe/linux/plat.o
 .note.GNU-stack
                0x00000000        0x0 platform/libpicofe/linux/plat.o
 .text          0x00000000        0x0 platform/libpicofe/sndout.o
 .data          0x00000000        0x0 platform/libpicofe/sndout.o
 .bss           0x00000000        0x0 platform/libpicofe/sndout.o
 .note.GNU-stack
                0x00000000        0x0 platform/libpicofe/sndout.o
 .text          0x00000000        0x0 platform/libpicofe/sndout_sdl.o
 .data          0x00000000        0x0 platform/libpicofe/sndout_sdl.o
 .note.GNU-stack
                0x00000000        0x0 platform/libpicofe/sndout_sdl.o
 .data          0x00000000        0x0 platform/libpicofe/arm_linux.o
 .bss           0x00000000        0x0 platform/libpicofe/arm_linux.o
 .text          0x00000000        0x0 platform/common/mp3.o
 .text.mp3_find_sync_word
                0x00000000       0x80 platform/common/mp3.o
 .note.GNU-stack
                0x00000000        0x0 platform/common/mp3.o
 .text          0x00000000        0x0 platform/common/mp3_dummy.o
 .data          0x00000000        0x0 platform/common/mp3_dummy.o
 .bss           0x00000000        0x0 platform/common/mp3_dummy.o
 .note.GNU-stack
                0x00000000        0x0 platform/common/mp3_dummy.o
 .text          0x00000000        0x0 zlib/gzio.o
 .data          0x00000000        0x0 zlib/gzio.o
 .bss           0x00000000        0x0 zlib/gzio.o
 .note.GNU-stack
                0x00000000        0x0 zlib/gzio.o
 .text          0x00000000        0x0 zlib/inffast.o
 .data          0x00000000        0x0 zlib/inffast.o
 .bss           0x00000000        0x0 zlib/inffast.o
 .note.GNU-stack
                0x00000000        0x0 zlib/inffast.o
 .text          0x00000000        0x0 zlib/inflate.o
 .data          0x00000000        0x0 zlib/inflate.o
 .bss           0x00000000        0x0 zlib/inflate.o
 .note.GNU-stack
                0x00000000        0x0 zlib/inflate.o
 .text          0x00000000        0x0 zlib/inftrees.o
 .data          0x00000000        0x0 zlib/inftrees.o
 .bss           0x00000000        0x0 zlib/inftrees.o
 .note.GNU-stack
                0x00000000        0x0 zlib/inftrees.o
 .text          0x00000000        0x0 zlib/trees.o
 .bss           0x00000000        0x0 zlib/trees.o
 .text._tr_tally
                0x00000000       0xb8 zlib/trees.o
 .note.GNU-stack
                0x00000000        0x0 zlib/trees.o
 .text          0x00000000        0x0 zlib/deflate.o
 .data          0x00000000        0x0 zlib/deflate.o
 .bss           0x00000000        0x0 zlib/deflate.o
 .note.GNU-stack
                0x00000000        0x0 zlib/deflate.o
 .text          0x00000000        0x0 zlib/crc32.o
 .data          0x00000000        0x0 zlib/crc32.o
 .bss           0x00000000        0x0 zlib/crc32.o
 .note.GNU-stack
                0x00000000        0x0 zlib/crc32.o
 .text          0x00000000        0x0 zlib/adler32.o
 .data          0x00000000        0x0 zlib/adler32.o
 .bss           0x00000000        0x0 zlib/adler32.o
 .note.GNU-stack
                0x00000000        0x0 zlib/adler32.o
 .text          0x00000000        0x0 zlib/zutil.o
 .data          0x00000000        0x0 zlib/zutil.o
 .bss           0x00000000        0x0 zlib/zutil.o
 .note.GNU-stack
                0x00000000        0x0 zlib/zutil.o
 .text          0x00000000        0x0 zlib/compress.o
 .data          0x00000000        0x0 zlib/compress.o
 .bss           0x00000000        0x0 zlib/compress.o
 .note.GNU-stack
                0x00000000        0x0 zlib/compress.o
 .text          0x00000000        0x0 zlib/uncompr.o
 .data          0x00000000        0x0 zlib/uncompr.o
 .bss           0x00000000        0x0 zlib/uncompr.o
 .note.GNU-stack
                0x00000000        0x0 zlib/uncompr.o
 .text          0x00000000        0x0 unzip/unzip.o
 .bss           0x00000000        0x0 unzip/unzip.o
 .text.suspendzip
                0x00000000       0x28 unzip/unzip.o
 .text.rewindzip
                0x00000000        0xc unzip/unzip.o
 .text.readcompresszip
                0x00000000      0x138 unzip/unzip.o
 .text.readuncompresszip
                0x00000000      0x298 unzip/unzip.o
 .note.GNU-stack
                0x00000000        0x0 unzip/unzip.o
 .text          0x00000000        0x0 unzip/unzip_stream.o
 .data          0x00000000        0x0 unzip/unzip_stream.o
 .bss           0x00000000        0x0 unzip/unzip_stream.o
 .note.GNU-stack
                0x00000000        0x0 unzip/unzip_stream.o
 .data          0x00000000        0x0 pico/draw_arm.o
 .bss           0x00000000        0x0 pico/draw_arm.o
 .data          0x00000000        0x0 pico/draw2_arm.o
 .bss           0x00000000        0x0 pico/draw2_arm.o
 .data          0x00000000        0x0 pico/memory_arm.o
 .bss           0x00000000        0x0 pico/memory_arm.o
 .data          0x00000000        0x0 pico/sound/ym2612_arm.o
 .bss           0x00000000        0x0 pico/sound/ym2612_arm.o
 .data          0x00000000        0x0 pico/misc_arm.o
 .bss           0x00000000        0x0 pico/misc_arm.o
 .data          0x00000000        0x0 pico/cd/misc_arm.o
 .bss           0x00000000        0x0 pico/cd/misc_arm.o
 .text          0x00000000      0x1c0 pico/cd/mcd_arm.o
 .data          0x00000000        0x0 pico/cd/mcd_arm.o
 .bss           0x00000000        0x0 pico/cd/mcd_arm.o
 .ARM.attributes
                0x00000000       0x21 pico/cd/mcd_arm.o
 .debug_line    0x00000000       0xb7 pico/cd/mcd_arm.o
 .debug_info    0x00000000       0x5f pico/cd/mcd_arm.o
 .debug_abbrev  0x00000000       0x14 pico/cd/mcd_arm.o
 .debug_aranges
                0x00000000       0x20 pico/cd/mcd_arm.o
 .data          0x00000000        0x0 pico/cd/memory_arm.o
 .bss           0x00000000        0x0 pico/cd/memory_arm.o
 .bss           0x00000000        0x0 pico/sound/mix_arm.o
 .text          0x00000000        0x0 pico/pico.o
 .data          0x00000000        0x0 pico/pico.o
 .text.PicoGetInternal
                0x00000000       0x70 pico/pico.o
 .note.GNU-stack
                0x00000000        0x0 pico/pico.o
 .text          0x00000000        0x0 pico/cart.o
 .data          0x00000000        0x0 pico/cart.o
 .note.GNU-stack
                0x00000000        0x0 pico/cart.o
 .text          0x00000000        0x0 pico/memory.o
 .bss           0x00000000        0x0 pico/memory.o
 .text.m68k_read32
                0x00000000       0x58 pico/memory.o
 .text.m68k_write32
                0x00000000       0x5c pico/memory.o
 .note.GNU-stack
                0x00000000        0x0 pico/memory.o
 .text          0x00000000        0x0 pico/state.o
 .data          0x00000000        0x0 pico/state.o
 .text.PicoStateFP
                0x00000000       0xa4 pico/state.o
 .note.GNU-stack
                0x00000000        0x0 pico/state.o
 .text          0x00000000        0x0 pico/sek.o
 .data          0x00000000        0x0 pico/sek.o
 .note.GNU-stack
                0x00000000        0x0 pico/sek.o
 .text          0x00000000        0x0 pico/z80if.o
 .data          0x00000000        0x0 pico/z80if.o
 .note.GNU-stack
                0x00000000        0x0 pico/z80if.o
 .text          0x00000000        0x0 pico/videoport.o
 .data          0x00000000        0x0 pico/videoport.o
 .note.GNU-stack
                0x00000000        0x0 pico/videoport.o
 .text          0x00000000        0x0 pico/draw2.o
 .note.GNU-stack
                0x00000000        0x0 pico/draw2.o
 .text          0x00000000        0x0 pico/draw.o
 .note.GNU-stack
                0x00000000        0x0 pico/draw.o
 .text          0x00000000        0x0 pico/mode4.o
 .data          0x00000000        0x0 pico/mode4.o
 .note.GNU-stack
                0x00000000        0x0 pico/mode4.o
 .text          0x00000000        0x0 pico/misc.o
 .data          0x00000000        0x0 pico/misc.o
 .bss           0x00000000        0x0 pico/misc.o
 .note.GNU-stack
                0x00000000        0x0 pico/misc.o
 .text          0x00000000        0x0 pico/eeprom.o
 .bss           0x00000000        0x0 pico/eeprom.o
 .note.GNU-stack
                0x00000000        0x0 pico/eeprom.o
 .text          0x00000000        0x0 pico/patch.o
 .note.GNU-stack
                0x00000000        0x0 pico/patch.o
 .text          0x00000000        0x0 pico/debug.o
 .data          0x00000000        0x0 pico/debug.o
 .note.GNU-stack
                0x00000000        0x0 pico/debug.o
 .text          0x00000000        0x0 pico/media.o
 .data          0x00000000        0x0 pico/media.o
 .bss           0x00000000        0x0 pico/media.o
 .note.GNU-stack
                0x00000000        0x0 pico/media.o
 .text          0x00000000        0x0 pico/sms.o
 .data          0x00000000        0x0 pico/sms.o
 .note.GNU-stack
                0x00000000        0x0 pico/sms.o
 .text          0x00000000        0x0 pico/cd/mcd.o
 .data          0x00000000        0x0 pico/cd/mcd.o
 .text.pcd_cycles_m68k_to_s68k
                0x00000000       0x1c pico/cd/mcd.o
 .text.pcd_run_cpus_lockstep
                0x00000000       0xa0 pico/cd/mcd.o
 .note.GNU-stack
                0x00000000        0x0 pico/cd/mcd.o
 .text          0x00000000        0x0 pico/cd/memory.o
 .data          0x00000000        0x0 pico/cd/memory.o
 .bss           0x00000000        0x0 pico/cd/memory.o
 .text.s68k_read8
                0x00000000       0x30 pico/cd/memory.o
 .text.s68k_read16
                0x00000000       0x30 pico/cd/memory.o
 .text.s68k_read32
                0x00000000       0x58 pico/cd/memory.o
 .text.s68k_write8
                0x00000000       0x2c pico/cd/memory.o
 .text.s68k_write16
                0x00000000       0x2c pico/cd/memory.o
 .text.s68k_write32
                0x00000000       0x5c pico/cd/memory.o
 .note.GNU-stack
                0x00000000        0x0 pico/cd/memory.o
 .text          0x00000000        0x0 pico/cd/sek.o
 .data          0x00000000        0x0 pico/cd/sek.o
 .bss           0x00000000        0x0 pico/cd/sek.o
 .note.GNU-stack
                0x00000000        0x0 pico/cd/sek.o
 .text          0x00000000        0x0 pico/cd/cdc.o
 .data          0x00000000        0x0 pico/cd/cdc.o
 .note.GNU-stack
                0x00000000        0x0 pico/cd/cdc.o
 .text          0x00000000        0x0 pico/cd/cdd.o
 .data          0x00000000        0x0 pico/cd/cdd.o
 .bss           0x00000000        0x0 pico/cd/cdd.o
 .note.GNU-stack
                0x00000000        0x0 pico/cd/cdd.o
 .text          0x00000000        0x0 pico/cd/cd_image.o
 .data          0x00000000        0x0 pico/cd/cd_image.o
 .bss           0x00000000        0x0 pico/cd/cd_image.o
 .note.GNU-stack
                0x00000000        0x0 pico/cd/cd_image.o
 .text          0x00000000        0x0 pico/cd/cue.o
 .data          0x00000000        0x0 pico/cd/cue.o
 .bss           0x00000000        0x0 pico/cd/cue.o
 .note.GNU-stack
                0x00000000        0x0 pico/cd/cue.o
 .text          0x00000000        0x0 pico/cd/gfx.o
 .data          0x00000000        0x0 pico/cd/gfx.o
 .note.GNU-stack
                0x00000000        0x0 pico/cd/gfx.o
 .text          0x00000000        0x0 pico/cd/gfx_dma.o
 .data          0x00000000        0x0 pico/cd/gfx_dma.o
 .bss           0x00000000        0x0 pico/cd/gfx_dma.o
 .note.GNU-stack
                0x00000000        0x0 pico/cd/gfx_dma.o
 .text          0x00000000        0x0 pico/cd/misc.o
 .bss           0x00000000        0x0 pico/cd/misc.o
 .note.GNU-stack
                0x00000000        0x0 pico/cd/misc.o
 .text          0x00000000        0x0 pico/cd/pcm.o
 .data          0x00000000        0x0 pico/cd/pcm.o
 .bss           0x00000000        0x0 pico/cd/pcm.o
 .note.GNU-stack
                0x00000000        0x0 pico/cd/pcm.o
 .text          0x00000000        0x0 pico/32x/32x.o
 .data          0x00000000        0x0 pico/32x/32x.o
 .text.sync_sh2s_lockstep
                0x00000000       0x60 pico/32x/32x.o
 .note.GNU-stack
                0x00000000        0x0 pico/32x/32x.o
 .text          0x00000000        0x0 pico/32x/memory.o
 .data          0x00000000        0x0 pico/32x/memory.o
 .text.p32x_m68k_poll_event
                0x00000000       0x48 pico/32x/memory.o
 .note.GNU-stack
                0x00000000        0x0 pico/32x/memory.o
 .text          0x00000000        0x0 pico/32x/draw.o
 .data          0x00000000        0x0 pico/32x/draw.o
 .bss           0x00000000        0x0 pico/32x/draw.o
 .note.GNU-stack
                0x00000000        0x0 pico/32x/draw.o
 .text          0x00000000        0x0 pico/32x/sh2soc.o
 .data          0x00000000        0x0 pico/32x/sh2soc.o
 .note.GNU-stack
                0x00000000        0x0 pico/32x/sh2soc.o
 .text          0x00000000        0x0 pico/32x/pwm.o
 .data          0x00000000        0x0 pico/32x/pwm.o
 .text.p32x_pwm_schedule
                0x00000000       0xa4 pico/32x/pwm.o
 .note.GNU-stack
                0x00000000        0x0 pico/32x/pwm.o
 .text          0x00000000        0x0 pico/pico/pico.o
 .note.GNU-stack
                0x00000000        0x0 pico/pico/pico.o
 .text          0x00000000        0x0 pico/pico/memory.o
 .data          0x00000000        0x0 pico/pico/memory.o
 .bss           0x00000000        0x0 pico/pico/memory.o
 .note.GNU-stack
                0x00000000        0x0 pico/pico/memory.o
 .text          0x00000000        0x0 pico/pico/xpcm.o
 .note.GNU-stack
                0x00000000        0x0 pico/pico/xpcm.o
 .text          0x00000000        0x0 pico/carthw/carthw.o
 .note.GNU-stack
                0x00000000        0x0 pico/carthw/carthw.o
 .text          0x00000000        0x0 pico/carthw/svp/svp.o
 .note.GNU-stack
                0x00000000        0x0 pico/carthw/svp/svp.o
 .text          0x00000000        0x0 pico/carthw/svp/memory.o
 .data          0x00000000        0x0 pico/carthw/svp/memory.o
 .bss           0x00000000        0x0 pico/carthw/svp/memory.o
 .note.GNU-stack
                0x00000000        0x0 pico/carthw/svp/memory.o
 .text          0x00000000        0x0 pico/carthw/svp/ssp16.o
 .data          0x00000000        0x0 pico/carthw/svp/ssp16.o
 .note.GNU-stack
                0x00000000        0x0 pico/carthw/svp/ssp16.o
 .data          0x00000000        0x0 pico/carthw/svp/stub_arm.o
 .bss           0x00000000        0x0 pico/carthw/svp/stub_arm.o
 .text          0x00000000        0x0 pico/carthw/svp/compiler.o
 .data          0x00000000        0x0 pico/carthw/svp/compiler.o
 .note.GNU-stack
                0x00000000        0x0 pico/carthw/svp/compiler.o
 .text          0x00000000        0x0 pico/sound/sound.o
 .text.PsndClear
                0x00000000       0x94 pico/sound/sound.o
 .note.GNU-stack
                0x00000000        0x0 pico/sound/sound.o
 .text          0x00000000        0x0 pico/sound/sn76496.o
 .data          0x00000000        0x0 pico/sound/sn76496.o
 .note.GNU-stack
                0x00000000        0x0 pico/sound/sn76496.o
 .text          0x00000000        0x0 pico/sound/ym2612.o
 .data          0x00000000        0x0 pico/sound/ym2612.o
 .note.GNU-stack
                0x00000000        0x0 pico/sound/ym2612.o
 .data          0x00000000        0x0 pico/m68kif_cyclone.o
 .bss           0x00000000        0x0 pico/m68kif_cyclone.o
 .bss           0x00000000        0x0 cpu/cyclone/Cyclone.o
 .bss           0x00000000        0x0 cpu/cyclone/tools/idle.o
 .bss           0x00000000        0x0 cpu/DrZ80/drz80.o
 .text          0x00000000        0x0 cpu/drc/cmn.o
 .data          0x00000000        0x0 cpu/drc/cmn.o
 .note.GNU-stack
                0x00000000        0x0 cpu/drc/cmn.o
 .text          0x00000000        0x0 cpu/sh2/sh2.o
 .data          0x00000000        0x0 cpu/sh2/sh2.o
 .bss           0x00000000        0x0 cpu/sh2/sh2.o
 .note.GNU-stack
                0x00000000        0x0 cpu/sh2/sh2.o
 .text          0x00000000        0x0 cpu/sh2/compiler.o
 .note.GNU-stack
                0x00000000        0x0 cpu/sh2/compiler.o
 .text          0x00000000        0x0 cpu/sh2/mame/sh2pico.o
 .data          0x00000000        0x0 cpu/sh2/mame/sh2pico.o
 .bss           0x00000000        0x0 cpu/sh2/mame/sh2pico.o
 .note.GNU-stack
                0x00000000        0x0 cpu/sh2/mame/sh2pico.o
 .data          0x00000000        0x0 /media/BBB/lib/gcc/arm-linux-gnueabihf/4.9.1/libgcc.a(_divsi3.o)
 .bss           0x00000000        0x0 /media/BBB/lib/gcc/arm-linux-gnueabihf/4.9.1/libgcc.a(_divsi3.o)
 .note.GNU-stack
                0x00000000        0x0 /media/BBB/lib/gcc/arm-linux-gnueabihf/4.9.1/libgcc.a(_divsi3.o)
 .data          0x00000000        0x0 /media/BBB/lib/gcc/arm-linux-gnueabihf/4.9.1/libgcc.a(_aeabi_ldivmod.o)
 .bss           0x00000000        0x0 /media/BBB/lib/gcc/arm-linux-gnueabihf/4.9.1/libgcc.a(_aeabi_ldivmod.o)
 .note.GNU-stack
                0x00000000        0x0 /media/BBB/lib/gcc/arm-linux-gnueabihf/4.9.1/libgcc.a(_aeabi_ldivmod.o)
 .data          0x00000000        0x0 /media/BBB/lib/gcc/arm-linux-gnueabihf/4.9.1/libgcc.a(_dvmd_lnx.o)
 .bss           0x00000000        0x0 /media/BBB/lib/gcc/arm-linux-gnueabihf/4.9.1/libgcc.a(_dvmd_lnx.o)
 .note.GNU-stack
                0x00000000        0x0 /media/BBB/lib/gcc/arm-linux-gnueabihf/4.9.1/libgcc.a(_dvmd_lnx.o)
 .data          0x00000000        0x0 /media/BBB/lib/gcc/arm-linux-gnueabihf/4.9.1/libgcc.a(bpabi.o)
 .bss           0x00000000        0x0 /media/BBB/lib/gcc/arm-linux-gnueabihf/4.9.1/libgcc.a(bpabi.o)
 .note.GNU-stack
                0x00000000        0x0 /media/BBB/lib/gcc/arm-linux-gnueabihf/4.9.1/libgcc.a(bpabi.o)
 .data          0x00000000        0x0 /media/BBB/lib/gcc/arm-linux-gnueabihf/4.9.1/libgcc.a(_divdi3.o)
 .bss           0x00000000        0x0 /media/BBB/lib/gcc/arm-linux-gnueabihf/4.9.1/libgcc.a(_divdi3.o)
 .ARM.extab     0x00000000        0x0 /media/BBB/lib/gcc/arm-linux-gnueabihf/4.9.1/libgcc.a(_divdi3.o)
 .note.GNU-stack
                0x00000000        0x0 /media/BBB/lib/gcc/arm-linux-gnueabihf/4.9.1/libgcc.a(_divdi3.o)
 .data          0x00000000        0x0 /media/BBB/lib/gcc/arm-linux-gnueabihf/4.9.1/libgcc.a(_udivdi3.o)
 .bss           0x00000000        0x0 /media/BBB/lib/gcc/arm-linux-gnueabihf/4.9.1/libgcc.a(_udivdi3.o)
 .ARM.extab     0x00000000        0x0 /media/BBB/lib/gcc/arm-linux-gnueabihf/4.9.1/libgcc.a(_udivdi3.o)
 .note.GNU-stack
                0x00000000        0x0 /media/BBB/lib/gcc/arm-linux-gnueabihf/4.9.1/libgcc.a(_udivdi3.o)
 .data          0x00000000        0x0 /usr/lib/arm-linux-gnueabihf/libc_nonshared.a(elf-init.oS)
 .bss           0x00000000        0x0 /usr/lib/arm-linux-gnueabihf/libc_nonshared.a(elf-init.oS)
 .note.GNU-stack
                0x00000000        0x0 /usr/lib/arm-linux-gnueabihf/libc_nonshared.a(elf-init.oS)
 .text          0x00000000        0x0 /media/BBB/lib/gcc/arm-linux-gnueabihf/4.9.1/crtend.o
 .data          0x00000000        0x0 /media/BBB/lib/gcc/arm-linux-gnueabihf/4.9.1/crtend.o
 .bss           0x00000000        0x0 /media/BBB/lib/gcc/arm-linux-gnueabihf/4.9.1/crtend.o
 .note.GNU-stack
                0x00000000        0x0 /media/BBB/lib/gcc/arm-linux-gnueabihf/4.9.1/crtend.o
 .text          0x00000000        0x0 /usr/lib/arm-linux-gnueabihf/crtn.o
 .data          0x00000000        0x0 /usr/lib/arm-linux-gnueabihf/crtn.o
 .bss           0x00000000        0x0 /usr/lib/arm-linux-gnueabihf/crtn.o
 .note.GNU-stack
                0x00000000        0x0 /usr/lib/arm-linux-gnueabihf/crtn.o
 .gnu_debuglink
                0x00000000        0xc /usr/lib/arm-linux-gnueabihf/crtn.o

Memory Configuration

Name             Origin             Length             Attributes
*default*        0x00000000         0xffffffff

Linker script and memory map

LOAD /usr/lib/arm-linux-gnueabihf/crt1.o
LOAD /usr/lib/arm-linux-gnueabihf/crti.o
LOAD /media/BBB/lib/gcc/arm-linux-gnueabihf/4.9.1/crtbegin.o
LOAD platform/linux/emu.o
LOAD platform/linux/blit.o
LOAD platform/common/plat_sdl.o
LOAD platform/libpicofe/plat_sdl.o
LOAD platform/libpicofe/in_sdl.o
LOAD platform/libpicofe/plat_dummy.o
LOAD platform/common/main.o
LOAD platform/common/emu.o
LOAD platform/common/menu_pico.o
LOAD platform/common/config_file.o
LOAD platform/libpicofe/input.o
LOAD platform/libpicofe/readpng.o
LOAD platform/libpicofe/fonts.o
LOAD platform/libpicofe/linux/in_evdev.o
LOAD platform/libpicofe/linux/plat.o
LOAD platform/libpicofe/sndout.o
LOAD platform/libpicofe/sndout_sdl.o
LOAD platform/libpicofe/arm_linux.o
LOAD platform/common/mp3.o
LOAD platform/common/mp3_dummy.o
LOAD zlib/gzio.o
LOAD zlib/inffast.o
LOAD zlib/inflate.o
LOAD zlib/inftrees.o
LOAD zlib/trees.o
LOAD zlib/deflate.o
LOAD zlib/crc32.o
LOAD zlib/adler32.o
LOAD zlib/zutil.o
LOAD zlib/compress.o
LOAD zlib/uncompr.o
LOAD unzip/unzip.o
LOAD unzip/unzip_stream.o
LOAD pico/draw_arm.o
LOAD pico/draw2_arm.o
LOAD pico/memory_arm.o
LOAD pico/sound/ym2612_arm.o
LOAD pico/misc_arm.o
LOAD pico/cd/misc_arm.o
LOAD pico/cd/mcd_arm.o
LOAD pico/cd/memory_arm.o
LOAD pico/sound/mix_arm.o
LOAD pico/pico.o
LOAD pico/cart.o
LOAD pico/memory.o
LOAD pico/state.o
LOAD pico/sek.o
LOAD pico/z80if.o
LOAD pico/videoport.o
LOAD pico/draw2.o
LOAD pico/draw.o
LOAD pico/mode4.o
LOAD pico/misc.o
LOAD pico/eeprom.o
LOAD pico/patch.o
LOAD pico/debug.o
LOAD pico/media.o
LOAD pico/sms.o
LOAD pico/cd/mcd.o
LOAD pico/cd/memory.o
LOAD pico/cd/sek.o
LOAD pico/cd/cdc.o
LOAD pico/cd/cdd.o
LOAD pico/cd/cd_image.o
LOAD pico/cd/cue.o
LOAD pico/cd/gfx.o
LOAD pico/cd/gfx_dma.o
LOAD pico/cd/misc.o
LOAD pico/cd/pcm.o
LOAD pico/32x/32x.o
LOAD pico/32x/memory.o
LOAD pico/32x/draw.o
LOAD pico/32x/sh2soc.o
LOAD pico/32x/pwm.o
LOAD pico/pico/pico.o
LOAD pico/pico/memory.o
LOAD pico/pico/xpcm.o
LOAD pico/carthw/carthw.o
LOAD pico/carthw/svp/svp.o
LOAD pico/carthw/svp/memory.o
LOAD pico/carthw/svp/ssp16.o
LOAD pico/carthw/svp/stub_arm.o
LOAD pico/carthw/svp/compiler.o
LOAD pico/sound/sound.o
LOAD pico/sound/sn76496.o
LOAD pico/sound/ym2612.o
LOAD pico/m68kif_cyclone.o
LOAD cpu/cyclone/Cyclone.o
LOAD cpu/cyclone/tools/idle.o
LOAD cpu/DrZ80/drz80.o
LOAD cpu/drc/cmn.o
LOAD cpu/sh2/sh2.o
LOAD cpu/sh2/compiler.o
LOAD cpu/sh2/mame/sh2pico.o
LOAD /media/BBB//lib/libSDL.so
LOAD /usr/lib/arm-linux-gnueabihf/libpthread.so
START GROUP
LOAD /lib/arm-linux-gnueabihf/libpthread.so.0
LOAD /usr/lib/arm-linux-gnueabihf/libpthread_nonshared.a
END GROUP
LOAD /usr/lib/arm-linux-gnueabihf/libpng.so
LOAD /usr/lib/arm-linux-gnueabihf/libm.so
LOAD /media/BBB/lib/gcc/arm-linux-gnueabihf/4.9.1/libgcc.a
LOAD /media/BBB//lib/libgcc_s.so
START GROUP
LOAD /media/BBB//lib/libgcc_s.so.1
LOAD /media/BBB/lib/gcc/arm-linux-gnueabihf/4.9.1/libgcc.a
END GROUP
LOAD /usr/lib/arm-linux-gnueabihf/libc.so
START GROUP
LOAD /lib/arm-linux-gnueabihf/libc.so.6
LOAD /usr/lib/arm-linux-gnueabihf/libc_nonshared.a
LOAD /lib/arm-linux-gnueabihf/ld-linux-armhf.so.3
END GROUP
LOAD /media/BBB/lib/gcc/arm-linux-gnueabihf/4.9.1/libgcc.a
LOAD /media/BBB//lib/libgcc_s.so
START GROUP
LOAD /media/BBB//lib/libgcc_s.so.1
LOAD /media/BBB/lib/gcc/arm-linux-gnueabihf/4.9.1/libgcc.a
END GROUP
LOAD /media/BBB/lib/gcc/arm-linux-gnueabihf/4.9.1/crtend.o
LOAD /usr/lib/arm-linux-gnueabihf/crtn.o
                0x00008000                PROVIDE (__executable_start, 0x8000)
                0x00008134                . = (0x8000 + SIZEOF_HEADERS)

.interp         0x00008134       0x19
 *(.interp)
 .interp        0x00008134       0x19 /usr/lib/arm-linux-gnueabihf/crt1.o

.note.ABI-tag   0x00008150       0x20
 .note.ABI-tag  0x00008150       0x20 /usr/lib/arm-linux-gnueabihf/crt1.o

.note.gnu.build-id
 *(.note.gnu.build-id)

.hash           0x00008170      0x650
 *(.hash)
 .hash          0x00008170      0x650 /usr/lib/arm-linux-gnueabihf/crt1.o

.gnu.hash
 *(.gnu.hash)

.dynsym         0x000087c0      0xcd0
 *(.dynsym)
 .dynsym        0x000087c0      0xcd0 /usr/lib/arm-linux-gnueabihf/crt1.o

.dynstr         0x00009490      0x8a9
 *(.dynstr)
 .dynstr        0x00009490      0x8a9 /usr/lib/arm-linux-gnueabihf/crt1.o

.gnu.version    0x00009d3a      0x19a
 *(.gnu.version)
 .gnu.version   0x00009d3a      0x19a /usr/lib/arm-linux-gnueabihf/crt1.o

.gnu.version_d  0x00009ed4        0x0
 *(.gnu.version_d)
 .gnu.version_d
                0x00000000        0x0 /usr/lib/arm-linux-gnueabihf/crt1.o

.gnu.version_r  0x00009ed4       0x80
 *(.gnu.version_r)
 .gnu.version_r
                0x00009ed4       0x80 /usr/lib/arm-linux-gnueabihf/crt1.o

.rel.dyn        0x00009f54       0x18
 *(.rel.init)
 *(.rel.text .rel.text.* .rel.gnu.linkonce.t.*)
 *(.rel.fini)
 *(.rel.rodata .rel.rodata.* .rel.gnu.linkonce.r.*)
 *(.rel.data.rel.ro* .rel.gnu.linkonce.d.rel.ro.*)
 *(.rel.data .rel.data.* .rel.gnu.linkonce.d.*)
 *(.rel.tdata .rel.tdata.* .rel.gnu.linkonce.td.*)
 *(.rel.tbss .rel.tbss.* .rel.gnu.linkonce.tb.*)
 *(.rel.ctors)
 *(.rel.dtors)
 *(.rel.got)
 .rel.got       0x00009f54        0x8 /usr/lib/arm-linux-gnueabihf/crt1.o
 *(.rel.bss .rel.bss.* .rel.gnu.linkonce.b.*)
 .rel.bss       0x00009f5c       0x10 /usr/lib/arm-linux-gnueabihf/crt1.o
                0x00009f6c                PROVIDE (__rel_iplt_start, .)
 *(.rel.iplt)
 .rel.iplt      0x00000000        0x0 /usr/lib/arm-linux-gnueabihf/crt1.o
                0x00009f6c                PROVIDE (__rel_iplt_end, .)
                0x00009f6c                PROVIDE (__rela_iplt_start, .)
                0x00009f6c                PROVIDE (__rela_iplt_end, .)

.rela.dyn       0x00009f6c        0x0
 *(.rela.init)
 *(.rela.text .rela.text.* .rela.gnu.linkonce.t.*)
 *(.rela.fini)
 *(.rela.rodata .rela.rodata.* .rela.gnu.linkonce.r.*)
 *(.rela.data .rela.data.* .rela.gnu.linkonce.d.*)
 *(.rela.tdata .rela.tdata.* .rela.gnu.linkonce.td.*)
 *(.rela.tbss .rela.tbss.* .rela.gnu.linkonce.tb.*)
 *(.rela.ctors)
 *(.rela.dtors)
 *(.rela.got)
 *(.rela.bss .rela.bss.* .rela.gnu.linkonce.b.*)
                0x00009f6c                PROVIDE (__rel_iplt_start, .)
                0x00009f6c                PROVIDE (__rel_iplt_end, .)
                0x00009f6c                PROVIDE (__rela_iplt_start, .)
 *(.rela.iplt)
                0x00009f6c                PROVIDE (__rela_iplt_end, .)

.rel.plt        0x00009f6c      0x3d8
 *(.rel.plt)
 .rel.plt       0x00009f6c      0x3d8 /usr/lib/arm-linux-gnueabihf/crt1.o

.rela.plt
 *(.rela.plt)

.init           0x0000a344        0xa
 *(.init)
 .init          0x0000a344        0x8 /usr/lib/arm-linux-gnueabihf/crti.o
                0x0000a344                _init
 .init          0x0000a34c        0x2 /usr/lib/arm-linux-gnueabihf/crtn.o

.plt            0x0000a350      0x5dc
 *(.plt)
 .plt           0x0000a350      0x5dc /usr/lib/arm-linux-gnueabihf/crt1.o
                0x0000a364                SDL_JoystickOpen
                0x0000a370                strerror@@GLIBC_2.4
                0x0000a37c                SDL_PeepEvents
                0x0000a388                fileno@@GLIBC_2.4
                0x0000a394                mkdir@@GLIBC_2.4
                0x0000a3a0                png_destroy_read_struct@@PNG12_0
                0x0000a3ac                mmap@@GLIBC_2.4
                0x0000a3b8                abort@@GLIBC_2.4
                0x0000a3c4                localtime@@GLIBC_2.4
                0x0000a3d0                opendir@@GLIBC_2.4
                0x0000a3dc                memcmp@@GLIBC_2.4
                0x0000a3e8                __libc_start_main@@GLIBC_2.4
                0x0000a3f4                mremap@@GLIBC_2.4
                0x0000a400                SDL_JoystickName
                0x0000a40c                SDL_WM_SetCaption
                0x0000a428                rewind@@GLIBC_2.4
                0x0000a434                vsnprintf@@GLIBC_2.4
                0x0000a440                pow@@GLIBC_2.4
                0x0000a44c                strncpy@@GLIBC_2.4
                0x0000a458                fclose@@GLIBC_2.4
                0x0000a464                fgets@@GLIBC_2.4
                0x0000a470                SDL_FreeYUVOverlay
                0x0000a47c                getenv@@GLIBC_2.4
                0x0000a488                strtod@@GLIBC_2.4
                0x0000a494                png_get_rows@@PNG12_0
                0x0000a4a0                strchr@@GLIBC_2.4
                0x0000a4ac                putchar@@GLIBC_2.4
                0x0000a4b8                strcasecmp@@GLIBC_2.4
                0x0000a4c4                calloc@@GLIBC_2.4
                0x0000a4d0                scandir@@GLIBC_2.4
                0x0000a4dc                stpcpy@@GLIBC_2.4
                0x0000a4e8                png_create_info_struct@@PNG12_0
                0x0000a4f4                fopen@@GLIBC_2.4
                0x0000a500                SDL_UnlockSurface
                0x0000a50c                memset@@GLIBC_2.4
                0x0000a518                SDL_InitSubSystem
                0x0000a524                SDL_LockSurface
                0x0000a530                png_get_image_height@@PNG12_0
                0x0000a53c                strrchr@@GLIBC_2.4
                0x0000a548                perror@@GLIBC_2.4
                0x0000a554                SDL_VideoDriverName
                0x0000a560                floor@@GLIBC_2.4
                0x0000a56c                SDL_JoystickEventState
                0x0000a578                png_get_image_width@@PNG12_0
                0x0000a584                SDL_SetVideoMode
                0x0000a590                SDL_NumJoysticks
                0x0000a59c                usleep@@GLIBC_2.4
                0x0000a5a8                SDL_LockYUVOverlay
                0x0000a5b4                png_init_io@@PNG12_0
                0x0000a5c0                free@@GLIBC_2.4
                0x0000a5cc                SDL_PumpEvents
                0x0000a5d8                gettimeofday@@GLIBC_2.4
                0x0000a5e4                fseek@@GLIBC_2.4
                0x0000a5f0                SDL_GetVideoInfo
                0x0000a5fc                fflush@@GLIBC_2.4
                0x0000a608                SDL_Init
                0x0000a614                strlen@@GLIBC_2.4
                0x0000a620                sscanf@@GLIBC_2.4
                0x0000a62c                SDL_OpenAudio
                0x0000a638                strtoul@@GLIBC_2.4
                0x0000a644                memcpy@@GLIBC_2.4
                0x0000a650                setlocale@@GLIBC_2.4
                0x0000a65c                clearerr@@GLIBC_2.4
                0x0000a668                mprotect@@GLIBC_2.4
                0x0000a674                feof@@GLIBC_2.4
                0x0000a680                ftell@@GLIBC_2.4
                0x0000a68c                strtol@@GLIBC_2.4
                0x0000a698                strcpy@@GLIBC_2.4
                0x0000a6a4                strncat@@GLIBC_2.4
                0x0000a6b0                printf@@GLIBC_2.4
                0x0000a6bc                raise@@GLIBC_2.4
                0x0000a6c8                SDL_DisplayYUVOverlay
                0x0000a6d4                alphasort@@GLIBC_2.4
                0x0000a6e0                fdopen@@GLIBC_2.4
                0x0000a6ec                strstr@@GLIBC_2.4
                0x0000a6f8                select@@GLIBC_2.4
                0x0000a704                fwrite@@GLIBC_2.4
                0x0000a710                closedir@@GLIBC_2.4
                0x0000a71c                strncasecmp@@GLIBC_2.4
                0x0000a728                remove@@GLIBC_2.4
                0x0000a734                time@@GLIBC_2.4
                0x0000a740                fprintf@@GLIBC_2.4
                0x0000a74c                malloc@@GLIBC_2.4
                0x0000a758                SDL_CloseAudio
                0x0000a764                SDL_PauseAudio
                0x0000a770                fputc@@GLIBC_2.4
                0x0000a77c                getcwd@@GLIBC_2.4
                0x0000a788                SDL_UnlockYUVOverlay
                0x0000a794                sleep@@GLIBC_2.4
                0x0000a7a0                png_read_png@@PNG12_0
                0x0000a7ac                strcat@@GLIBC_2.4
                0x0000a7b8                memmove@@GLIBC_2.4
                0x0000a7c4                SDL_CreateYUVOverlay
                0x0000a7d0                puts@@GLIBC_2.4
                0x0000a7dc                log@@GLIBC_2.4
                0x0000a7e8                strftime@@GLIBC_2.4
                0x0000a7f4                png_create_read_struct@@PNG12_0
                0x0000a800                SDL_Delay
                0x0000a80c                SDL_Flip
                0x0000a818                SDL_QuitSubSystem
                0x0000a824                SDL_Quit
                0x0000a830                readlink@@GLIBC_2.4
                0x0000a83c                sin@@GLIBC_2.4
                0x0000a848                png_get_bit_depth@@PNG12_0
                0x0000a854                rand@@GLIBC_2.4
                0x0000a860                munmap@@GLIBC_2.4
                0x0000a86c                __fxstat@@GLIBC_2.4
                0x0000a878                vfprintf@@GLIBC_2.4
                0x0000a884                snprintf@@GLIBC_2.4
                0x0000a890                SDL_JoystickClose
                0x0000a89c                fread@@GLIBC_2.4
                0x0000a8a8                SDL_GetError
                0x0000a8b4                strncmp@@GLIBC_2.4
                0x0000a8c0                gmtime@@GLIBC_2.4
                0x0000a8cc                ferror@@GLIBC_2.4
                0x0000a8d8                realloc@@GLIBC_2.4
                0x0000a8e4                __strdup@@GLIBC_2.4
                0x0000a8f0                SDL_PushEvent
                0x0000a8fc                strcmp@@GLIBC_2.4
                0x0000a908                exit@@GLIBC_2.4
                0x0000a914                __errno_location@@GLIBC_2.4
                0x0000a920                sprintf@@GLIBC_2.4

.iplt           0x0000a92c        0x0
 *(.iplt)
 .iplt          0x00000000        0x0 /usr/lib/arm-linux-gnueabihf/crt1.o

.text           0x0000a930    0x9ffbc
 *(.text.unlikely .text.*_unlikely)
 *(.text.exit .text.exit.*)
 *(.text.startup .text.startup.*)
 .text.startup.main
                0x0000a930      0x178 platform/common/main.o
                0x0000a930                main
 *(.text.hot .text.hot.*)
 *(.text .stub .text.* .gnu.linkonce.t.*)
 .text          0x0000aaa8       0x38 /usr/lib/arm-linux-gnueabihf/crt1.o
                0x0000aaa8                _start
 .text          0x0000aae0       0x18 /usr/lib/arm-linux-gnueabihf/crti.o
 .text          0x0000aaf8       0x90 /media/BBB/lib/gcc/arm-linux-gnueabihf/4.9.1/crtbegin.o
 .text.pemu_prep_defconfig
                0x0000ab88        0x4 platform/linux/emu.o
                0x0000ab88                pemu_prep_defconfig
 .text.pemu_validate_config
                0x0000ab8c       0x18 platform/linux/emu.o
                0x0000ab8c                pemu_validate_config
 .text.pemu_finalize_frame
                0x0000aba4      0x214 platform/linux/emu.o
                0x0000aba4                pemu_finalize_frame
 .text.plat_video_toggle_renderer
                0x0000adb8      0x14c platform/linux/emu.o
                0x0000adb8                plat_video_toggle_renderer
 .text.plat_status_msg_clear
                0x0000af04       0x4c platform/linux/emu.o
                0x0000af04                plat_status_msg_clear
 .text.plat_status_msg_busy_next
                0x0000af50       0x80 platform/linux/emu.o
                0x0000af50                plat_status_msg_busy_next
 .text.plat_status_msg_busy_first
                0x0000afd0       0x80 platform/linux/emu.o
                0x0000afd0                plat_status_msg_busy_first
 .text.plat_update_volume
                0x0000b050        0x4 platform/linux/emu.o
                0x0000b050                plat_update_volume
 .text.pemu_forced_frame
                0x0000b054       0x68 platform/linux/emu.o
                0x0000b054                pemu_forced_frame
 .text.pemu_sound_start
                0x0000b0bc        0x4 platform/linux/emu.o
                0x0000b0bc                pemu_sound_start
 .text.plat_debug_cat
                0x0000b0c0        0x4 platform/linux/emu.o
                0x0000b0c0                plat_debug_cat
 .text.emu_video_mode_change
                0x0000b0c4       0x38 platform/linux/emu.o
                0x0000b0c4                emu_video_mode_change
 .text.pemu_loop_prep
                0x0000b0fc      0x100 platform/linux/emu.o
                0x0000b0fc                pemu_loop_prep
 .text.pemu_loop_end
                0x0000b1fc       0x60 platform/linux/emu.o
                0x0000b1fc                pemu_loop_end
 .text.plat_wait_till_us
                0x0000b25c       0x34 platform/linux/emu.o
                0x0000b25c                plat_wait_till_us
 .text.plat_sdl_quit
                0x0000b290        0xc platform/common/plat_sdl.o
 .text.rgb565_to_uyvy
                0x0000b29c      0x100 platform/common/plat_sdl.o
                0x0000b29c                rgb565_to_uyvy
 .text.plat_video_flip
                0x0000b39c      0x11c platform/common/plat_sdl.o
                0x0000b39c                plat_video_flip
 .text.plat_video_wait_vsync
                0x0000b4b8        0x4 platform/common/plat_sdl.o
                0x0000b4b8                plat_video_wait_vsync
 .text.plat_video_menu_enter
                0x0000b4bc       0x40 platform/common/plat_sdl.o
                0x0000b4bc                plat_video_menu_enter
 .text.plat_video_menu_begin
                0x0000b4fc       0x90 platform/common/plat_sdl.o
                0x0000b4fc                plat_video_menu_begin
 .text.plat_video_menu_end
                0x0000b58c       0xfc platform/common/plat_sdl.o
                0x0000b58c                plat_video_menu_end
 .text.plat_video_menu_leave
                0x0000b688        0x4 platform/common/plat_sdl.o
                0x0000b688                plat_video_menu_leave
 .text.plat_video_loop_prepare
                0x0000b68c       0xc8 platform/common/plat_sdl.o
                0x0000b68c                plat_video_loop_prepare
 .text.plat_early_init
                0x0000b754        0x4 platform/common/plat_sdl.o
                0x0000b754                plat_early_init
 .text.plat_init
                0x0000b758      0x224 platform/common/plat_sdl.o
                0x0000b758                plat_init
 .text.plat_finish
                0x0000b97c       0x38 platform/common/plat_sdl.o
                0x0000b97c                plat_finish
 .text.plat_sdl_change_video_mode
                0x0000b9b4      0x378 platform/libpicofe/plat_sdl.o
                0x0000b9b4                plat_sdl_change_video_mode
 .text.plat_sdl_event_handler
                0x0000bd2c      0x114 platform/libpicofe/plat_sdl.o
                0x0000bd2c                plat_sdl_event_handler
 .text.plat_sdl_init
                0x0000be40      0x360 platform/libpicofe/plat_sdl.o
                0x0000be40                plat_sdl_init
 .text.plat_sdl_finish
                0x0000c1a0       0x98 platform/libpicofe/plat_sdl.o
                0x0000c1a0                plat_sdl_finish
 .text.in_sdl_get_key_names
                0x0000c238       0x24 platform/libpicofe/in_sdl.o
 .text.in_sdl_menu_translate
                0x0000c25c      0x128 platform/libpicofe/in_sdl.o
 .text.in_sdl_free
                0x0000c384       0x2c platform/libpicofe/in_sdl.o
 .text.in_sdl_probe
                0x0000c3b0      0x148 platform/libpicofe/in_sdl.o
 .text.collect_events
                0x0000c4f8      0x394 platform/libpicofe/in_sdl.o
 .text.in_sdl_update_keycode
                0x0000c88c       0x3c platform/libpicofe/in_sdl.o
 .text.in_sdl_update
                0x0000c8c8       0x88 platform/libpicofe/in_sdl.o
 .text.in_sdl_init
                0x0000c950       0x60 platform/libpicofe/in_sdl.o
                0x0000c950                in_sdl_init
 .text.plat_target_init
                0x0000c9b0        0x8 platform/libpicofe/plat_dummy.o
                0x0000c9b0                plat_target_init
 .text.plat_target_finish
                0x0000c9b8        0x4 platform/libpicofe/plat_dummy.o
                0x0000c9b8                plat_target_finish
 .text.parse_cmd_line
                0x0000c9bc      0x1a4 platform/common/main.o
                0x0000c9bc                parse_cmd_line
 .text.emu_tray_open
                0x0000cb60       0x14 platform/common/emu.o
 .text.do_turbo
                0x0000cb74       0xd4 platform/common/emu.o
 .text.snd_write_nonblocking
                0x0000cc48       0x20 platform/common/emu.o
 .text.fname_ext
                0x0000cc68       0xec platform/common/emu.o
 .text.emu_read_config.constprop.8
                0x0000cd54      0x160 platform/common/emu.o
 .text.emu_get_save_fname.constprop.4
                0x0000ceb4      0x410 platform/common/emu.o
 .text.emu_status_msg
                0x0000d2c4       0x7c platform/common/emu.o
                0x0000d2c4                emu_status_msg
 .text.emu_tray_close
                0x0000d340        0xc platform/common/emu.o
 .text.emu_swap_cd
                0x0000d34c       0x60 platform/common/emu.o
                0x0000d34c                emu_swap_cd
 .text.emu_prep_defconfig
                0x0000d3ac       0x80 platform/common/emu.o
                0x0000d3ac                emu_prep_defconfig
 .text.emu_set_defconfig
                0x0000d42c       0x68 platform/common/emu.o
                0x0000d42c                emu_set_defconfig
 .text.emu_read_config
                0x0000d494      0x908 platform/common/emu.o
                0x0000d494                emu_read_config
 .text.do_region_override
                0x0000dd9c       0x1c platform/common/emu.o
 .text.find_bios
                0x0000ddb8      0x254 platform/common/emu.o
 .text.emu_write_config
                0x0000e00c      0x26c platform/common/emu.o
                0x0000e00c                emu_write_config
 .text.emu_text_out16
                0x0000e278       0xe0 platform/common/emu.o
                0x0000e278                emu_text_out16
 .text.emu_osd_text16
                0x0000e358       0xa4 platform/common/emu.o
                0x0000e358                emu_osd_text16
 .text.emu_get_save_fname
                0x0000e3fc      0x674 platform/common/emu.o
                0x0000e3fc                emu_get_save_fname
 .text.emu_check_save_file
                0x0000ea70      0x410 platform/common/emu.o
                0x0000ea70                emu_check_save_file
 .text.emu_save_load_game
                0x0000ee80      0x828 platform/common/emu.o
                0x0000ee80                emu_save_load_game
 .text.emu_reload_rom
                0x0000f6a8      0x7f4 platform/common/emu.o
                0x0000f6a8                emu_reload_rom
 .text.emu_32x_startup
                0x0000fe9c      0x10c platform/common/emu.o
                0x0000fe9c                emu_32x_startup
 .text.emu_reset_game
                0x0000ffa8       0x1c platform/common/emu.o
                0x0000ffa8                emu_reset_game
 .text.run_events_pico
                0x0000ffc4      0x1d4 platform/common/emu.o
                0x0000ffc4                run_events_pico
 .text.emu_update_input
                0x00010198      0x584 platform/common/emu.o
                0x00010198                emu_update_input
 .text.emu_cmn_forced_frame
                0x0001071c       0x9c platform/common/emu.o
                0x0001071c                emu_cmn_forced_frame
 .text.emu_init
                0x000107b8      0x240 platform/common/emu.o
                0x000107b8                emu_init
 .text.emu_finish
                0x000109f8      0x2fc platform/common/emu.o
                0x000109f8                emu_finish
 .text.emu_sound_start
                0x00010cf4       0xe0 platform/common/emu.o
                0x00010cf4                emu_sound_start
 .text.emu_sound_stop
                0x00010dd4       0x10 platform/common/emu.o
                0x00010dd4                emu_sound_stop
 .text.emu_sound_wait
                0x00010de4       0x10 platform/common/emu.o
                0x00010de4                emu_sound_wait
 .text.emu_loop
                0x00010df4      0x54c platform/common/emu.o
                0x00010df4                emu_loop
 .text.menu_darken_text_bg
                0x00011340      0x2c8 platform/common/menu_pico.o
 .text.mh_opt_sh2cycles
                0x00011608       0x88 platform/common/menu_pico.o
 .text.mh_tray_nothing
                0x00011690        0x8 platform/common/menu_pico.o
 .text.mgn_dev_name
                0x00011698       0x7c platform/common/menu_pico.o
 .text.mgn_saveloadcfg
                0x00011714       0x44 platform/common/menu_pico.o
 .text.mgn_opt_sh2cycles
                0x00011758       0x38 platform/common/menu_pico.o
 .text.mgn_aopt_gamma
                0x00011790       0x50 platform/common/menu_pico.o
 .text.mgn_opt_sound
                0x000117e0       0x58 platform/common/menu_pico.o
 .text.mgn_opt_fskip
                0x00011838       0x40 platform/common/menu_pico.o
 .text.action_binds
                0x00011878      0x180 platform/common/menu_pico.o
 .text.scandir_cmp
                0x000119f8       0x3c platform/common/menu_pico.o
 .text.scandir_filter
                0x00011a34       0x78 platform/common/menu_pico.o
 .text.mh_opt_misc
                0x00011aac      0x260 platform/common/menu_pico.o
 .text.mgn_opt_region
                0x00011d0c       0xe4 platform/common/menu_pico.o
 .text.text_out16_.constprop.22
                0x00011df0      0x368 platform/common/menu_pico.o
 .text.make_bg.constprop.12
                0x00012158      0x130 platform/common/menu_pico.o
 .text.make_bg  0x00012288      0x234 platform/common/menu_pico.o
 .text.menu_enter
                0x000124bc       0xd8 platform/common/menu_pico.o
 .text.mh_restore_defaults
                0x00012594       0x50 platform/common/menu_pico.o
 .text.load_progress_cb
                0x000125e4       0xa8 platform/common/menu_pico.o
 .text.mh_saveloadcfg
                0x0001268c      0x1d0 platform/common/menu_pico.o
 .text.smalltext_out16
                0x0001285c      0x140 platform/common/menu_pico.o
 .text.smalltext_out16.constprop.15
                0x0001299c      0x13c platform/common/menu_pico.o
 .text.draw_text_debug.constprop.13
                0x00012ad8      0x230 platform/common/menu_pico.o
 .text.cdload_progress_cb
                0x00012d08      0x3a0 platform/common/menu_pico.o
 .text.draw_dirlist
                0x000130a8      0xa48 platform/common/menu_pico.o
 .text.text_out16
                0x00013af0      0x4b4 platform/common/menu_pico.o
                0x00013af0                text_out16
 .text.menu_main_draw_status
                0x00013fa4      0x450 platform/common/menu_pico.o
 .text.menu_loop_savestate
                0x000143f4      0x4fc platform/common/menu_pico.o
 .text.me_draw  0x000148f0      0x994 platform/common/menu_pico.o
 .text.me_loop_d.constprop.11
                0x00015284      0xd38 platform/common/menu_pico.o
 .text.menu_loop_options
                0x00015fbc      0x18c platform/common/menu_pico.o
 .text.menu_loop_gfx_options
                0x00016148       0xd0 platform/common/menu_pico.o
 .text.menu_loop_cd_options
                0x00016218       0x24 platform/common/menu_pico.o
 .text.menu_loop_32x_options
                0x0001623c       0xf0 platform/common/menu_pico.o
 .text.menu_loop_adv_options
                0x0001632c       0x24 platform/common/menu_pico.o
 .text.menu_loop_keyconfig
                0x00016350       0xe8 platform/common/menu_pico.o
 .text.menu_loop_romsel.constprop.8
                0x00016438      0x85c platform/common/menu_pico.o
 .text.mh_tray_load_cd
                0x00016c94       0x48 platform/common/menu_pico.o
 .text.main_menu_handler
                0x00016cdc      0xc78 platform/common/menu_pico.o
 .text.key_config_loop
                0x00017954      0xbe4 platform/common/menu_pico.o
 .text.key_config_loop_wrap
                0x00018538       0x74 platform/common/menu_pico.o
 .text.menu_init_base
                0x000185ac      0x370 platform/common/menu_pico.o
                0x000185ac                menu_init_base
 .text.menu_romload_prepare
                0x0001891c      0x398 platform/common/menu_pico.o
                0x0001891c                menu_romload_prepare
 .text.menu_romload_end
                0x00018cb4      0x198 platform/common/menu_pico.o
                0x00018cb4                menu_romload_end
 .text.menu_loop
                0x00018e4c      0x484 platform/common/menu_pico.o
                0x00018e4c                menu_loop
 .text.menu_loop_tray
                0x000192d0       0xac platform/common/menu_pico.o
                0x000192d0                menu_loop_tray
 .text.menu_update_msg
                0x0001937c       0x44 platform/common/menu_pico.o
                0x0001937c                menu_update_msg
 .text.me_list_get_first
                0x000193c0       0x20 platform/common/menu_pico.o
                0x000193c0                me_list_get_first
 .text.me_list_get_next
                0x000193e0       0xc4 platform/common/menu_pico.o
                0x000193e0                me_list_get_next
 .text.menu_init
                0x000194a4      0x440 platform/common/menu_pico.o
                0x000194a4                menu_init
 .text.config_write
                0x000198e4      0x6d4 platform/common/config_file.o
                0x000198e4                config_write
 .text.config_writelrom
                0x00019fb8      0x250 platform/common/config_file.o
                0x00019fb8                config_writelrom
 .text.config_readlrom
                0x0001a208      0x1e8 platform/common/config_file.o
                0x0001a208                config_readlrom
 .text.config_get_var_val
                0x0001a3f0      0x384 platform/common/config_file.o
                0x0001a3f0                config_get_var_val
 .text.config_readsect
                0x0001a774      0xc94 platform/common/config_file.o
                0x0001a774                config_readsect
 .text.in_def_free
                0x0001b408        0x4 platform/libpicofe/input.o
 .text.in_def_clean_binds
                0x0001b40c        0x8 platform/libpicofe/input.o
 .text.in_def_get_config
                0x0001b414        0x8 platform/libpicofe/input.o
 .text.in_def_set_config
                0x0001b41c        0x8 platform/libpicofe/input.o
 .text.in_def_update_analog
                0x0001b424        0x8 platform/libpicofe/input.o
 .text.in_def_update_keycode
                0x0001b42c        0x8 platform/libpicofe/input.o
 .text.in_def_menu_translate
                0x0001b434        0x8 platform/libpicofe/input.o
 .text.in_def_get_key_code
                0x0001b43c        0x8 platform/libpicofe/input.o
 .text.in_def_get_key_name
                0x0001b444        0x8 platform/libpicofe/input.o
 .text.in_register
                0x0001b44c      0x3a4 platform/libpicofe/input.o
                0x0001b44c                in_register
 .text.in_probe
                0x0001b7f0      0x26c platform/libpicofe/input.o
                0x0001b7f0                in_probe
 .text.in_update
                0x0001ba5c       0x98 platform/libpicofe/input.o
                0x0001ba5c                in_update
 .text.in_update_keycode
                0x0001baf4      0x638 platform/libpicofe/input.o
                0x0001baf4                in_update_keycode
 .text.in_menu_wait_any
                0x0001c12c       0x84 platform/libpicofe/input.o
                0x0001c12c                in_menu_wait_any
 .text.in_menu_wait
                0x0001c1b0      0x160 platform/libpicofe/input.o
                0x0001c1b0                in_menu_wait
 .text.in_get_dev_binds
                0x0001c310       0x1c platform/libpicofe/input.o
                0x0001c310                in_get_dev_binds
 .text.in_get_config
                0x0001c32c       0xb0 platform/libpicofe/input.o
                0x0001c32c                in_get_config
 .text.in_set_config
                0x0001c3dc      0x168 platform/libpicofe/input.o
                0x0001c3dc                in_set_config
 .text.in_get_dev_name
                0x0001c544       0x84 platform/libpicofe/input.o
                0x0001c544                in_get_dev_name
 .text.in_get_key_name
                0x0001c5c8      0x128 platform/libpicofe/input.o
                0x0001c5c8                in_get_key_name
 .text.in_bind_key
                0x0001c6f0      0x1b0 platform/libpicofe/input.o
                0x0001c6f0                in_bind_key
 .text.in_unbind_all
                0x0001c8a0       0xb4 platform/libpicofe/input.o
                0x0001c8a0                in_unbind_all
 .text.in_config_parse_dev
                0x0001c954      0x3c0 platform/libpicofe/input.o
                0x0001c954                in_config_parse_dev
 .text.in_config_bind_key
                0x0001cd14      0x260 platform/libpicofe/input.o
                0x0001cd14                in_config_bind_key
 .text.in_register_driver
                0x0001cf74      0x170 platform/libpicofe/input.o
                0x0001cf74                in_register_driver
 .text.in_init  0x0001d0e4       0x30 platform/libpicofe/input.o
                0x0001d0e4                in_init
 .text.readpng  0x0001d114      0x5d8 platform/libpicofe/readpng.o
                0x0001d114                readpng
 .text.plat_is_dir
                0x0001d6ec       0x24 platform/libpicofe/linux/plat.o
                0x0001d6ec                plat_is_dir
 .text.plat_get_skin_dir
                0x0001d710       0xcc platform/libpicofe/linux/plat.o
                0x0001d710                plat_get_skin_dir
 .text.plat_get_root_dir
                0x0001d7dc       0xfc platform/libpicofe/linux/plat.o
                0x0001d7dc                plat_get_root_dir
 .text.plat_get_ticks_ms
                0x0001d8d8       0x3c platform/libpicofe/linux/plat.o
                0x0001d8d8                plat_get_ticks_ms
 .text.plat_get_ticks_us
                0x0001d914       0x34 platform/libpicofe/linux/plat.o
                0x0001d914                plat_get_ticks_us
 .text.plat_sleep_ms
                0x0001d948       0x10 platform/libpicofe/linux/plat.o
                0x0001d948                plat_sleep_ms
 .text.plat_wait_event
                0x0001d958      0x184 platform/libpicofe/linux/plat.o
                0x0001d958                plat_wait_event
 .text.plat_mmap
                0x0001dadc      0x15c platform/libpicofe/linux/plat.o
                0x0001dadc                plat_mmap
 .text.plat_mremap
                0x0001dc38       0x4c platform/libpicofe/linux/plat.o
                0x0001dc38                plat_mremap
 .text.plat_munmap
                0x0001dc84       0x8c platform/libpicofe/linux/plat.o
                0x0001dc84                plat_munmap
 .text.plat_mem_set_exec
                0x0001dd10       0x5c platform/libpicofe/linux/plat.o
                0x0001dd10                plat_mem_set_exec
 .text.lprintf  0x0001dd6c       0x3c platform/libpicofe/linux/plat.o
                0x0001dd6c                lprintf
 .text.sndout_null_init
                0x0001dda8        0x8 platform/libpicofe/sndout.o
 .text.sndout_null_exit
                0x0001ddb0        0x4 platform/libpicofe/sndout.o
 .text.sndout_null_start
                0x0001ddb4        0x8 platform/libpicofe/sndout.o
 .text.sndout_null_stop
                0x0001ddbc        0x4 platform/libpicofe/sndout.o
 .text.sndout_null_wait
                0x0001ddc0        0x4 platform/libpicofe/sndout.o
 .text.sndout_null_write_nb
                0x0001ddc4        0x8 platform/libpicofe/sndout.o
 .text.sndout_init
                0x0001ddcc       0x68 platform/libpicofe/sndout.o
                0x0001ddcc                sndout_init
 .text.callback
                0x0001de34       0xc0 platform/libpicofe/sndout_sdl.o
 .text.sndout_sdl_init
                0x0001def4       0x1c platform/libpicofe/sndout_sdl.o
                0x0001def4                sndout_sdl_init
 .text.sndout_sdl_start
                0x0001df10      0x104 platform/libpicofe/sndout_sdl.o
                0x0001df10                sndout_sdl_start
 .text.sndout_sdl_stop
                0x0001e014       0x24 platform/libpicofe/sndout_sdl.o
                0x0001e014                sndout_sdl_stop
 .text.sndout_sdl_wait
                0x0001e038       0x50 platform/libpicofe/sndout_sdl.o
                0x0001e038                sndout_sdl_wait
 .text.sndout_sdl_write_nb
                0x0001e088       0xa4 platform/libpicofe/sndout_sdl.o
                0x0001e088                sndout_sdl_write_nb
 .text.sndout_sdl_exit
                0x0001e12c       0x38 platform/libpicofe/sndout_sdl.o
                0x0001e12c                sndout_sdl_exit
 .text          0x0001e164       0x1c platform/libpicofe/arm_linux.o
                0x0001e164                cache_flush_d_inval_i
 .text.mp3_get_bitrate
                0x0001e180      0x224 platform/common/mp3.o
                0x0001e180                mp3_get_bitrate
 .text.mp3_start_play
                0x0001e3a4      0x1b4 platform/common/mp3.o
                0x0001e3a4                mp3_start_play
 .text.mp3_update
                0x0001e558      0x13c platform/common/mp3.o
                0x0001e558                mp3_update
 .text.mp3dec_start
                0x0001e694        0x8 platform/common/mp3_dummy.o
                0x0001e694                mp3dec_start
 .text.mp3dec_decode
                0x0001e69c        0x8 platform/common/mp3_dummy.o
                0x0001e69c                mp3dec_decode
 .text.getLong  0x0001e6a4      0x260 zlib/gzio.o
 .text.check_header
                0x0001e904      0x6ec zlib/gzio.o
 .text.gzsetparams
                0x0001eff0       0x7c zlib/gzio.o
                0x0001eff0                gzsetparams
 .text.destroy  0x0001f06c       0xe4 zlib/gzio.o
                0x0001f06c                destroy
 .text.gz_open  0x0001f150      0x328 zlib/gzio.o
 .text.gzopen   0x0001f478        0x8 zlib/gzio.o
                0x0001f478                gzopen
 .text.gzdopen  0x0001f480       0x4c zlib/gzio.o
                0x0001f480                gzdopen
 .text.gzread   0x0001f4cc      0x570 zlib/gzio.o
                0x0001f4cc                gzread
 .text.gzgetc   0x0001fa3c      0x580 zlib/gzio.o
                0x0001fa3c                gzgetc
 .text.gzungetc
                0x0001ffbc       0x74 zlib/gzio.o
                0x0001ffbc                gzungetc
 .text.gzgets   0x00020030      0x60c zlib/gzio.o
                0x00020030                gzgets
 .text.gzwrite  0x0002063c      0x100 zlib/gzio.o
                0x0002063c                gzwrite
 .text.gzprintf
                0x0002073c       0x90 zlib/gzio.o
                0x0002073c                gzprintf
 .text.gzputc   0x000207cc       0x30 zlib/gzio.o
                0x000207cc                gzputc
 .text.gzputs   0x000207fc       0x28 zlib/gzio.o
                0x000207fc                gzputs
 .text.gzflush  0x00020824      0x11c zlib/gzio.o
                0x00020824                gzflush
 .text.gzseek   0x00020940      0x7b0 zlib/gzio.o
                0x00020940                gzseek
 .text.gzrewind
                0x000210f0       0x90 zlib/gzio.o
                0x000210f0                gzrewind
 .text.gztell   0x00021180       0xd4 zlib/gzio.o
                0x00021180                gztell
 .text.gzeof    0x00021254       0x44 zlib/gzio.o
                0x00021254                gzeof
 .text.gzdirect
                0x00021298       0x1c zlib/gzio.o
                0x00021298                gzdirect
 .text.gzclose  0x000212b4      0x158 zlib/gzio.o
                0x000212b4                gzclose
 .text.gzerror  0x0002140c      0x118 zlib/gzio.o
                0x0002140c                gzerror
 .text.gzclearerr
                0x00021524       0x28 zlib/gzio.o
                0x00021524                gzclearerr
 .text.inflate_fast
                0x0002154c      0xb90 zlib/inffast.o
                0x0002154c                inflate_fast
 .text.inflateReset
                0x000220dc       0x80 zlib/inflate.o
                0x000220dc                inflateReset
 .text.inflatePrime
                0x0002215c       0x64 zlib/inflate.o
                0x0002215c                inflatePrime
 .text.inflateInit2_
                0x000221c0      0x158 zlib/inflate.o
                0x000221c0                inflateInit2_
 .text.inflateInit_
                0x00022318      0x10c zlib/inflate.o
                0x00022318                inflateInit_
 .text.inflate  0x00022424     0x1d94 zlib/inflate.o
                0x00022424                inflate
 .text.inflateEnd
                0x000241b8       0x68 zlib/inflate.o
                0x000241b8                inflateEnd
 .text.inflateSetDictionary
                0x00024220      0x208 zlib/inflate.o
                0x00024220                inflateSetDictionary
 .text.inflateGetHeader
                0x00024428       0x3c zlib/inflate.o
                0x00024428                inflateGetHeader
 .text.inflateSync
                0x00024464      0x284 zlib/inflate.o
                0x00024464                inflateSync
 .text.inflateSyncPoint
                0x000246e8       0x40 zlib/inflate.o
                0x000246e8                inflateSyncPoint
 .text.inflateCopy
                0x00024728      0x1a8 zlib/inflate.o
                0x00024728                inflateCopy
 .text.inflate_table
                0x000248d0      0xba0 zlib/inftrees.o
                0x000248d0                inflate_table
 .text.send_tree
                0x00025470      0x620 zlib/trees.o
 .text.compress_block
                0x00025a90      0x47c zlib/trees.o
 .text.build_tree
                0x00025f0c      0xc14 zlib/trees.o
 .text._tr_init
                0x00026b20       0xd4 zlib/trees.o
                0x00026b20                _tr_init
 .text._tr_stored_block
                0x00026bf4      0x1a0 zlib/trees.o
                0x00026bf4                _tr_stored_block
 .text._tr_align
                0x00026d94      0x328 zlib/trees.o
                0x00026d94                _tr_align
 .text._tr_flush_block
                0x000270bc      0xb00 zlib/trees.o
                0x000270bc                _tr_flush_block
 .text.longest_match
                0x00027bbc      0x294 zlib/deflate.o
 .text.longest_match_fast
                0x00027e50      0x150 zlib/deflate.o
 .text.fill_window
                0x00027fa0      0x21c zlib/deflate.o
 .text.deflate_stored
                0x000281bc      0x314 zlib/deflate.o
 .text.deflate_fast
                0x000284d0      0x538 zlib/deflate.o
 .text.deflate_slow
                0x00028a08      0x694 zlib/deflate.o
 .text.deflateSetDictionary
                0x0002909c      0x11c zlib/deflate.o
                0x0002909c                deflateSetDictionary
 .text.deflateReset
                0x000291b8      0x160 zlib/deflate.o
                0x000291b8                deflateReset
 .text.deflateSetHeader
                0x00029318       0x34 zlib/deflate.o
                0x00029318                deflateSetHeader
 .text.deflatePrime
                0x0002934c       0x3c zlib/deflate.o
                0x0002934c                deflatePrime
 .text.deflateTune
                0x00029388       0x38 zlib/deflate.o
                0x00029388                deflateTune
 .text.deflateBound
                0x000293c0       0x48 zlib/deflate.o
                0x000293c0                deflateBound
 .text.deflate  0x00029408      0xfa4 zlib/deflate.o
                0x00029408                deflate
 .text.deflateParams
                0x0002a3ac       0xf0 zlib/deflate.o
                0x0002a3ac                deflateParams
 .text.deflateEnd
                0x0002a49c      0x11c zlib/deflate.o
                0x0002a49c                deflateEnd
 .text.deflateInit2_
                0x0002a5b8      0x280 zlib/deflate.o
                0x0002a5b8                deflateInit2_
 .text.deflateInit_
                0x0002a838      0x1fc zlib/deflate.o
                0x0002a838                deflateInit_
 .text.deflateCopy
                0x0002aa34      0x200 zlib/deflate.o
                0x0002aa34                deflateCopy
 .text.get_crc_table
                0x0002ac34        0xc zlib/crc32.o
                0x0002ac34                get_crc_table
 .text.crc32    0x0002ac40      0x374 zlib/crc32.o
                0x0002ac40                crc32
 .text.crc32_combine
                0x0002afb4      0x214 zlib/crc32.o
                0x0002afb4                crc32_combine
 .text.adler32  0x0002b1c8      0x448 zlib/adler32.o
                0x0002b1c8                adler32
 .text.adler32_combine
                0x0002b610       0xa8 zlib/adler32.o
                0x0002b610                adler32_combine
 .text.zlibVersion
                0x0002b6b8        0xc zlib/zutil.o
                0x0002b6b8                zlibVersion
 .text.zlibCompileFlags
                0x0002b6c4        0x8 zlib/zutil.o
                0x0002b6c4                zlibCompileFlags
 .text.zError   0x0002b6cc       0x14 zlib/zutil.o
                0x0002b6cc                zError
 .text.zcalloc  0x0002b6e0        0x8 zlib/zutil.o
                0x0002b6e0                zcalloc
 .text.zcfree   0x0002b6e8        0x8 zlib/zutil.o
                0x0002b6e8                zcfree
 .text.compress2
                0x0002b6f0       0xa4 zlib/compress.o
                0x0002b6f0                compress2
 .text.compress
                0x0002b794       0xa4 zlib/compress.o
                0x0002b794                compress
 .text.compressBound
                0x0002b838       0x10 zlib/compress.o
                0x0002b838                compressBound
 .text.uncompress
                0x0002b848       0xbc zlib/uncompr.o
                0x0002b848                uncompress
 .text.openzip  0x0002b904      0x3f0 unzip/unzip.o
                0x0002b904                openzip
 .text.readzip  0x0002bcf4      0x2c0 unzip/unzip.o
                0x0002bcf4                readzip
 .text.closezip
                0x0002bfb4       0x44 unzip/unzip.o
                0x0002bfb4                closezip
 .text.seekcompresszip
                0x0002bff8       0xfc unzip/unzip.o
                0x0002bff8                seekcompresszip
 .text.zip2gz   0x0002c0f4      0x28c unzip/unzip_stream.o
                0x0002c0f4                zip2gz
 .text.gzerror2
                0x0002c380       0x10 unzip/unzip_stream.o
                0x0002c380                gzerror2
 .text          0x0002c390     0x1da4 pico/draw_arm.o
                0x0002c390                DrawLayer
                0x0002c9b0                BackFill
                0x0002ca20                DrawTilesFromCache
                0x0002cdfc                DrawSpritesSHi
                0x0002d528                DrawAllSprites
                0x0002d95c                DrawWindow
                0x0002db88                FinalizeLineBGR444
                0x0002dd04                vidConvCpyRGB565
                0x0002ddb4                PicoDoHighPal555
                0x0002df08                FinalizeLine555
                0x0002e0b8                blockcpy
                0x0002e0d8                blockcpy_or
 .text          0x0002e134     0x226c pico/draw2_arm.o
                0x0002e134                BackFillFull
                0x0002e1b4                DrawLayerFull
                0x0002ebb8                DrawTilesFromCacheF
                0x0002f428                DrawWindowFull
                0x0002fb6c                DrawSpriteFull
 .text          0x000303a0      0x2e0 pico/memory_arm.o
                0x000303a0                PicoRead8_sram
                0x00030428                PicoRead8_io
                0x0003049c                PicoRead16_sram
                0x00030510                PicoRead16_io
                0x0003058c                PicoWrite8_io
                0x00030600                PicoWrite16_io
 .text          0x00030680     0x1050 pico/sound/ym2612_arm.o
                0x00030680                chan_render_loop
 .text          0x000316d0      0x1ac pico/misc_arm.o
                0x000316d0                memcpy16
                0x0003172c                memcpy16bswap
                0x000317fc                memcpy32
                0x00031840                memset32
 .text          0x0003187c      0x108 pico/cd/misc_arm.o
                0x0003187c                wram_2M_to_1M
                0x00031900                wram_1M_to_2M
 .text          0x00031984      0x884 pico/cd/memory_arm.o
                0x0003198c                PicoReadM68k8_cell0
                0x00031994                PicoReadM68k8_cell1
                0x00031a30                PicoRead8_mcd_io
                0x00031b5c                PicoReadM68k16_cell0
                0x00031b64                PicoReadM68k16_cell1
                0x00031c00                PicoRead16_mcd_io
                0x00031ce8                PicoWriteM68k8_cell0
                0x00031cf0                PicoWriteM68k8_cell1
                0x00031d90                PicoWrite8_mcd_io
                0x00031da0                PicoWriteM68k16_cell0
                0x00031da8                PicoWriteM68k16_cell1
                0x00031e48                PicoWrite16_mcd_io
                0x00031e84                PicoReadS68k8_dec0
                0x00031e8c                PicoReadS68k8_dec1
                0x00031eb4                PicoReadS68k8_pr
                0x00031f68                PicoReadS68k16_dec0
                0x00031f70                PicoReadS68k16_dec1
                0x00031f98                PicoReadS68k16_pr
                0x00031fc0                PicoWriteS68k8_dec_m2b0
                0x00031fc8                PicoWriteS68k8_dec_m0b0
                0x00031fd0                PicoWriteS68k8_dec_m2b1
                0x00031fd8                PicoWriteS68k8_dec_m0b1
                0x00032010                PicoWriteS68k8_dec_m1b0
                0x00032018                PicoWriteS68k8_dec_m1b1
                0x0003205c                PicoWriteS68k8_pr
                0x000320e8                PicoWriteS68k16_dec_m0b0
                0x000320f0                PicoWriteS68k16_dec_m0b1
                0x00032118                PicoWriteS68k16_dec_m1b0
                0x00032120                PicoWriteS68k16_dec_m1b1
                0x0003216c                PicoWriteS68k16_dec_m2b0
                0x00032174                PicoWriteS68k16_dec_m2b1
                0x000321c0                PicoWriteS68k16_pr
 *fill*         0x00032208        0x8 00000000
 .text          0x00032210      0x4b0 pico/sound/mix_arm.o
                0x00032210                mix_16h_to_32
                0x00032288                mix_16h_to_32_s1
                0x00032304                mix_16h_to_32_s2
                0x00032380                mix_32_to_16l_stereo
                0x00032468                mix_32_to_16_mono
                0x000325b0                mix_32_to_16l_stereo_lvl
 .text.PicoInit
                0x000326c0       0x58 pico/pico.o
                0x000326c0                PicoInit
 .text.PicoExit
                0x00032718       0x44 pico/pico.o
                0x00032718                PicoExit
 .text.PicoDetectRegion
                0x0003275c      0x294 pico/pico.o
                0x0003275c                PicoDetectRegion
 .text.PicoReset
                0x000329f0      0x1cc pico/pico.o
                0x000329f0                PicoReset
 .text.PicoPower
                0x00032bbc       0xdc pico/pico.o
                0x00032bbc                PicoPower
 .text.PicoLoopPrepare
                0x00032c98       0x6c pico/pico.o
                0x00032c98                PicoLoopPrepare
 .text.CheckDMA
                0x00032d04       0xb0 pico/pico.o
                0x00032d04                CheckDMA
 .text.PicoSyncZ80
                0x00032db4       0x74 pico/pico.o
                0x00032db4                PicoSyncZ80
 .text.PicoFrame
                0x00032e28      0xcd8 pico/pico.o
                0x00032e28                PicoFrame
 .text.PicoFrameDrawOnly
                0x00033b00       0x34 pico/pico.o
                0x00033b00                PicoFrameDrawOnly
 .text.is_expr  0x00033b34       0xc8 pico/cart.o
 .text.rstrip   0x00033bfc       0x40 pico/cart.o
 .text.unlikely.parse_3_vals
                0x00033c3c       0xe8 pico/cart.o
 .text.parse_carthw
                0x00033d24      0xe2c pico/cart.o
 .text.pm_open  0x00034b50      0x438 pico/cart.o
                0x00034b50                pm_open
 .text.pm_read  0x00034f88      0x364 pico/cart.o
                0x00034f88                pm_read
 .text.pm_seek  0x000352ec      0x100 pico/cart.o
                0x000352ec                pm_seek
 .text.pm_close
                0x000353ec       0x94 pico/cart.o
                0x000353ec                pm_close
 .text.Byteswap
                0x00035480       0x44 pico/cart.o
                0x00035480                Byteswap
 .text.PicoCartLoad
                0x000354c4      0x428 pico/cart.o
                0x000354c4                PicoCartLoad
 .text.PicoCartInsert
                0x000358ec      0x3e8 pico/cart.o
                0x000358ec                PicoCartInsert
 .text.PicoCartResize
                0x00035cd4       0x40 pico/cart.o
                0x00035cd4                PicoCartResize
 .text.PicoCartUnload
                0x00035d14       0x88 pico/cart.o
                0x00035d14                PicoCartUnload
 .text.m68k_unmapped_read8
                0x00035d9c        0x8 pico/memory.o
 .text.m68k_unmapped_read16
                0x00035da4        0x8 pico/memory.o
 .text.m68k_unmapped_write8
                0x00035dac        0x4 pico/memory.o
 .text.m68k_unmapped_write16
                0x00035db0        0x4 pico/memory.o
 .text.read_pad_3btn
                0x00035db4       0x2c pico/memory.o
 .text.read_pad_6btn
                0x00035de0       0x88 pico/memory.o
 .text.read_nothing
                0x00035e68        0x8 pico/memory.o
 .text.ym2612_read_local_z80
                0x00035e70       0x78 pico/memory.o
 .text.z80_md_vdp_read
                0x00035ee8        0x8 pico/memory.o
 .text.z80_md_in
                0x00035ef0        0x8 pico/memory.o
 .text.z80_md_out
                0x00035ef8        0x4 pico/memory.o
 .text.PicoRead16_vdp
                0x00035efc       0x14 pico/memory.o
 .text.PicoRead8_vdp
                0x00035f10       0x14 pico/memory.o
 .text.PicoRead8_z80
                0x00035f24      0x108 pico/memory.o
 .text.z80_md_vdp_br_write
                0x0003602c       0x60 pico/memory.o
 .text.PicoWrite16_vdp
                0x0003608c       0x38 pico/memory.o
 .text.PicoWrite8_vdp
                0x000360c4       0x3c pico/memory.o
 .text.PicoWrite16_sram
                0x00036100       0x6c pico/memory.o
 .text.PicoWrite8_sram
                0x0003616c       0x74 pico/memory.o
 .text.port_read.constprop.9
                0x000361e0       0x48 pico/memory.o
 .text.port_read.constprop.10
                0x00036228       0x48 pico/memory.o
 .text.port_read.constprop.11
                0x00036270       0x48 pico/memory.o
 .text.z80_md_bank_write
                0x000362b8       0x50 pico/memory.o
 .text.z80_md_bank_read
                0x00036308       0x54 pico/memory.o
 .text.PicoRead16_z80
                0x0003635c      0x110 pico/memory.o
 .text.z80_map_set
                0x0003646c       0xf4 pico/memory.o
                0x0003646c                z80_map_set
 .text.cpu68k_map_set
                0x00036560       0xf4 pico/memory.o
                0x00036560                cpu68k_map_set
 .text.cpu68k_map_all_ram
                0x00036654       0xac pico/memory.o
                0x00036654                cpu68k_map_all_ram
 .text.m68k_map_unmap
                0x00036700       0xdc pico/memory.o
                0x00036700                m68k_map_unmap
 .text.m68k_read8
                0x000367dc       0x30 pico/memory.o
                0x000367dc                m68k_read8
 .text.m68k_read16
                0x0003680c       0x30 pico/memory.o
                0x0003680c                m68k_read16
 .text.m68k_write8
                0x0003683c       0x2c pico/memory.o
                0x0003683c                m68k_write8
 .text.m68k_write16
                0x00036868       0x2c pico/memory.o
                0x00036868                m68k_write16
 .text.cyclone_crashed
                0x00036894       0x60 pico/memory.o
                0x00036894                cyclone_crashed
 .text.PicoSetInputDevice
                0x000368f4       0x18 pico/memory.o
                0x000368f4                PicoSetInputDevice
 .text.io_ports_read
                0x0003690c       0x48 pico/memory.o
                0x0003690c                io_ports_read
 .text.io_ports_write
                0x00036954       0x78 pico/memory.o
                0x00036954                io_ports_write
 .text.ctl_write_z80busreq
                0x000369cc       0xc8 pico/memory.o
                0x000369cc                ctl_write_z80busreq
 .text.ctl_write_z80reset
                0x00036a94      0x11c pico/memory.o
                0x00036a94                ctl_write_z80reset
 .text.PicoMemSetup
                0x00036bb0      0xd40 pico/memory.o
                0x00036bb0                PicoMemSetup
 .text.ym2612_sync_timers
                0x000378f0      0x150 pico/memory.o
                0x000378f0                ym2612_sync_timers
 .text.ym2612_write_local
                0x00037a40      0x4ec pico/memory.o
 .text.PicoWrite8_z80
                0x00037f2c       0xfc pico/memory.o
 .text.PicoWrite16_z80
                0x00038028      0x100 pico/memory.o
 .text.ym2612_write_local.constprop.17
                0x00038128       0x1c pico/memory.o
 .text.ym2612_write_local.constprop.18
                0x00038144      0x2c4 pico/memory.o
 .text.ym2612_write_local.constprop.19
                0x00038408       0x1c pico/memory.o
 .text.ym2612_write_local.constprop.20
                0x00038424       0x38 pico/memory.o
 .text.z80_md_ym2612_write
                0x0003845c      0x3ec pico/memory.o
 .text.ym2612_pack_state
                0x00038848      0x100 pico/memory.o
                0x00038848                ym2612_pack_state
 .text.ym2612_unpack_state
                0x00038948      0x480 pico/memory.o
                0x00038948                ym2612_unpack_state
 .text.unlikely.write_chunk
                0x00038dc8       0x8c pico/state.o
 .text.gzWrite2
                0x00038e54       0x10 pico/state.o
 .text.gzRead2  0x00038e64       0x10 pico/state.o
 .text.state_load
                0x00038e74     0x1964 pico/state.o
 .text.state_load_legacy
                0x0003a7d8      0x1fc pico/state.o
 .text.state_save
                0x0003a9d4     0x12b8 pico/state.o
 .text.PicoState
                0x0003bc8c      0x278 pico/state.o
                0x0003bc8c                PicoState
 .text.PicoStateLoadGfx
                0x0003bf04      0x874 pico/state.o
                0x0003bf04                PicoStateLoadGfx
 .text.PicoTmpStateSave
                0x0003c778       0xec pico/state.o
                0x0003c778                PicoTmpStateSave
 .text.PicoTmpStateRestore
                0x0003c864      0x100 pico/state.o
                0x0003c864                PicoTmpStateRestore
 .text.SekIntAck
                0x0003c964       0x48 pico/sek.o
 .text.SekResetAck
                0x0003c9ac        0x4 pico/sek.o
 .text.SekUnrecognizedOpcode
                0x0003c9b0       0x78 pico/sek.o
 .text.SekInit  0x0003ca28       0x50 pico/sek.o
                0x0003ca28                SekInit
 .text.SekReset
                0x0003ca78       0x34 pico/sek.o
                0x0003ca78                SekReset
 .text.SekStepM68k
                0x0003caac       0x50 pico/sek.o
                0x0003caac                SekStepM68k
 .text.SekSetRealTAS
                0x0003cafc        0x4 pico/sek.o
                0x0003cafc                SekSetRealTAS
 .text.SekPackCpu
                0x0003cb00       0xb0 pico/sek.o
                0x0003cb00                SekPackCpu
 .text.SekUnpackCpu
                0x0003cbb0       0xc4 pico/sek.o
                0x0003cbb0                SekUnpackCpu
 .text.SekInitIdleDet
                0x0003cc74       0x60 pico/sek.o
                0x0003cc74                SekInitIdleDet
 .text.SekIsIdleReady
                0x0003ccd4       0x28 pico/sek.o
                0x0003ccd4                SekIsIdleReady
 .text.SekIsIdleCode
                0x0003ccfc      0x1c8 pico/sek.o
                0x0003ccfc                SekIsIdleCode
 .text.SekRegisterIdlePatch
                0x0003cec4       0xb4 pico/sek.o
                0x0003cec4                SekRegisterIdlePatch
 .text.SekFinishIdleDet
                0x0003cf78       0xb0 pico/sek.o
                0x0003cf78                SekFinishIdleDet
 .text.dz80_rebase_sp
                0x0003d028       0x5c pico/z80if.o
 .text.dz80_rebase_pc
                0x0003d084       0x48 pico/z80if.o
 .text.z80_init
                0x0003d0cc       0x50 pico/z80if.o
                0x0003d0cc                z80_init
 .text.z80_reset
                0x0003d11c       0x7c pico/z80if.o
                0x0003d11c                z80_reset
 .text.z80_pack
                0x0003d198      0x15c pico/z80if.o
                0x0003d198                z80_pack
 .text.z80_unpack
                0x0003d2f4      0x424 pico/z80if.o
                0x0003d2f4                z80_unpack
 .text.z80_exit
                0x0003d718        0x4 pico/z80if.o
                0x0003d718                z80_exit
 .text.z80_debug
                0x0003d71c       0x34 pico/z80if.o
                0x0003d71c                z80_debug
 .text.CommandChange
                0x0003d750      0x498 pico/videoport.o
 .text.PicoVideoWrite
                0x0003dbe8      0x608 pico/videoport.o
                0x0003dbe8                PicoVideoWrite
 .text.PicoVideoRead
                0x0003e1f0      0x188 pico/videoport.o
                0x0003e1f0                PicoVideoRead
 .text.PicoVideoRead8
                0x0003e378      0x234 pico/videoport.o
                0x0003e378                PicoVideoRead8
 .text.DrawAllSpritesFull
                0x0003e5ac      0x1d0 pico/draw2.o
 .text.PicoFrameFull
                0x0003e77c      0x3cc pico/draw2.o
                0x0003e77c                PicoFrameFull
 .text.TileNorm
                0x0003eb48       0xb4 pico/draw.o
 .text.TileFlip
                0x0003ebfc       0xb4 pico/draw.o
 .text.TileNormAS
                0x0003ecb0      0x120 pico/draw.o
 .text.TileFlipAS
                0x0003edd0      0x120 pico/draw.o
 .text.TileNormAS_noop
                0x0003eef0      0x148 pico/draw.o
 .text.TileFlipAS_noop
                0x0003f038      0x148 pico/draw.o
 .text.TileNormAS_onlymark
                0x0003f180       0xdc pico/draw.o
 .text.TileFlipAS_onlymark
                0x0003f25c       0xdc pico/draw.o
 .text.DrawSpritesHiAS
                0x0003f338      0x29c pico/draw.o
 .text.FinalizeLine8bit
                0x0003f5d4      0x16c pico/draw.o
 .text.DrawAllSpritesInterlace.isra.0
                0x0003f740      0x210 pico/draw.o
 .text.DrawStripInterlace
                0x0003f950      0x170 pico/draw.o
                0x0003f950                DrawStripInterlace
 .text.PrepareSprites
                0x0003fac0      0x91c pico/draw.o
                0x0003fac0                PrepareSprites
 .text.PicoFrameStart
                0x000403dc      0x7e8 pico/draw.o
                0x000403dc                PicoFrameStart
 .text.PicoDrawSync
                0x00040bc4      0xa88 pico/draw.o
                0x00040bc4                PicoDrawSync
 .text.PicoDrawUpdateHighPal
                0x0004164c       0x6c pico/draw.o
                0x0004164c                PicoDrawUpdateHighPal
 .text.PicoDrawSetOutFormat
                0x000416b8       0xa4 pico/draw.o
                0x000416b8                PicoDrawSetOutFormat
 .text.PicoDrawSetOutBuf
                0x0004175c       0x30 pico/draw.o
                0x0004175c                PicoDrawSetOutBuf
 .text.PicoDrawSetInternalBuf
                0x0004178c       0x5c pico/draw.o
                0x0004178c                PicoDrawSetInternalBuf
 .text.PicoDrawSetCallbacks
                0x000417e8       0x70 pico/draw.o
                0x000417e8                PicoDrawSetCallbacks
 .text.TileNormM4
                0x00041858      0x184 pico/mode4.o
 .text.draw_strip
                0x000419dc      0x24c pico/mode4.o
 .text.FinalizeLine8bitM4
                0x00041c28       0x38 pico/mode4.o
 .text.FinalizeLineRGB555M4
                0x00041c60       0xac pico/mode4.o
 .text.PicoFrameStartMode4
                0x00041d0c       0xe8 pico/mode4.o
                0x00041d0c                PicoFrameStartMode4
 .text.PicoLineMode4
                0x00041df4      0x364 pico/mode4.o
                0x00041df4                PicoLineMode4
 .text.PicoDoHighPal555M4
                0x00042158       0x8c pico/mode4.o
                0x00042158                PicoDoHighPal555M4
 .text.PicoDrawSetOutputMode4
                0x000421e4       0x4c pico/mode4.o
                0x000421e4                PicoDrawSetOutputMode4
 .text.EEPROM_write16
                0x00042230      0x344 pico/eeprom.o
                0x00042230                EEPROM_write16
 .text.EEPROM_write8
                0x00042574      0x35c pico/eeprom.o
                0x00042574                EEPROM_write8
 .text.EEPROM_read
                0x000428d0      0x39c pico/eeprom.o
                0x000428d0                EEPROM_read
 .text.genie_decode
                0x00042c6c      0x15c pico/patch.o
 .text.PicoPatchUnload
                0x00042dc8       0x30 pico/patch.o
                0x00042dc8                PicoPatchUnload
 .text.PicoPatchLoad
                0x00042df8      0x844 pico/patch.o
                0x00042df8                PicoPatchLoad
 .text.PicoPatchPrepare
                0x0004363c       0x84 pico/patch.o
                0x0004363c                PicoPatchPrepare
 .text.PicoPatchApply
                0x000436c0       0xb4 pico/patch.o
                0x000436c0                PicoPatchApply
 .text.PDebugMain
                0x00043774      0x3dc pico/debug.o
                0x00043774                PDebugMain
 .text.PDebug32x
                0x00043b50      0x2f8 pico/debug.o
                0x00043b50                PDebug32x
 .text.PDebugSpriteList
                0x00043e48      0x110 pico/debug.o
                0x00043e48                PDebugSpriteList
 .text.PDebugShowSpriteStats
                0x00043f58      0x168 pico/debug.o
                0x00043f58                PDebugShowSpriteStats
 .text.PDebugShowPalette
                0x000440c0      0x140 pico/debug.o
                0x000440c0                PDebugShowPalette
 .text.PDebugShowSprite
                0x00044200      0x218 pico/debug.o
                0x00044200                PDebugShowSprite
 .text.PDebugDumpMem
                0x00044418      0x854 pico/debug.o
                0x00044418                PDebugDumpMem
 .text.PDebugZ80Frame
                0x00044c6c      0x2fc pico/debug.o
                0x00044c6c                PDebugZ80Frame
 .text.PDebugCPUStep
                0x00044f68       0x28 pico/debug.o
                0x00044f68                PDebugCPUStep
 .text.PicoCdCheck
                0x00044f90      0x340 pico/media.o
                0x00044f90                PicoCdCheck
 .text.PicoLoadMedia
                0x000452d0      0x6cc pico/media.o
                0x000452d0                PicoLoadMedia
 .text.z80_sms_in
                0x0004599c      0x12c pico/sms.o
 .text.xwrite   0x00045ac8      0x124 pico/sms.o
 .text.z80_sms_out
                0x00045bec      0x154 pico/sms.o
 .text.PicoResetMS
                0x00045d40       0x10 pico/sms.o
                0x00045d40                PicoResetMS
 .text.PicoPowerMS
                0x00045d50       0xd0 pico/sms.o
                0x00045d50                PicoPowerMS
 .text.PicoMemSetupMS
                0x00045e20       0xf0 pico/sms.o
                0x00045e20                PicoMemSetupMS
 .text.PicoStateLoadedMS
                0x00045f10       0x84 pico/sms.o
                0x00045f10                PicoStateLoadedMS
 .text.PicoFrameMS
                0x00045f94      0x214 pico/sms.o
                0x00045f94                PicoFrameMS
 .text.PicoFrameDrawOnlyMS
                0x000461a8       0x24 pico/sms.o
                0x000461a8                PicoFrameDrawOnlyMS
 .text.pcd_dma_event
                0x000461cc        0x4 pico/cd/mcd.o
 .text.pcd_int3_timer_event
                0x000461d0       0x9c pico/cd/mcd.o
 .text.pcd_cdc_event
                0x0004626c       0xa8 pico/cd/mcd.o
 .text.pcd_sync_s68k.constprop.2
                0x00046314      0x2e4 pico/cd/mcd.o
 .text.PicoInitMCD
                0x000465f8        0x4 pico/cd/mcd.o
                0x000465f8                PicoInitMCD
 .text.PicoExitMCD
                0x000465fc        0x4 pico/cd/mcd.o
                0x000465fc                PicoExitMCD
 .text.PicoPowerMCD
                0x00046600      0x120 pico/cd/mcd.o
                0x00046600                PicoPowerMCD
 .text.pcd_soft_reset
                0x00046720      0x110 pico/cd/mcd.o
                0x00046720                pcd_soft_reset
 .text.PicoResetMCD
                0x00046830       0x68 pico/cd/mcd.o
                0x00046830                PicoResetMCD
 .text.pcd_event_schedule
                0x00046898       0x54 pico/cd/mcd.o
                0x00046898                pcd_event_schedule
 .text.pcd_event_schedule_s68k
                0x000468ec       0xa8 pico/cd/mcd.o
                0x000468ec                pcd_event_schedule_s68k
 .text.pcd_sync_s68k
                0x00046994      0x304 pico/cd/mcd.o
                0x00046994                pcd_sync_s68k
 .text.pcd_run_cpus
                0x00046c98      0x14c pico/cd/mcd.o
                0x00046c98                pcd_run_cpus
 .text.pcd_prepare_frame
                0x00046de4       0x58 pico/cd/mcd.o
                0x00046de4                pcd_prepare_frame
 .text.PicoFrameMCD
                0x00046e3c      0xb08 pico/cd/mcd.o
                0x00046e3c                PicoFrameMCD
 .text.pcd_state_loaded
                0x00047944      0x244 pico/cd/mcd.o
                0x00047944                pcd_state_loaded
 .text.s68k_unmapped_read8
                0x00047b88        0x8 pico/cd/memory.o
 .text.s68k_unmapped_read16
                0x00047b90        0x8 pico/cd/memory.o
 .text.s68k_unmapped_write8
                0x00047b98        0x4 pico/cd/memory.o
 .text.s68k_unmapped_write16
                0x00047b9c        0x4 pico/cd/memory.o
 .text.PicoWriteS68k8_prgwp
                0x00047ba0       0x2c pico/cd/memory.o
 .text.PicoWriteS68k16_prgwp
                0x00047bcc       0x24 pico/cd/memory.o
 .text.PicoReadS68k8_bram
                0x00047bf0       0x20 pico/cd/memory.o
 .text.PicoReadS68k16_bram
                0x00047c10       0x30 pico/cd/memory.o
 .text.PicoWriteS68k8_bram
                0x00047c40       0x30 pico/cd/memory.o
 .text.PicoWriteS68k16_bram
                0x00047c70       0x44 pico/cd/memory.o
 .text.PicoReadM68k8_ramc
                0x00047cb4       0x9c pico/cd/memory.o
 .text.PicoWriteM68k8_ramc
                0x00047d50       0x80 pico/cd/memory.o
 .text.remap_word_ram.part.3
                0x00047dd0      0x178 pico/cd/memory.o
 .text.PicoWriteM68k16_ramc
                0x00047f48       0x84 pico/cd/memory.o
 .text.PicoReadM68k16_ramc
                0x00047fcc       0x98 pico/cd/memory.o
 .text.m68k_comm_check
                0x00048064       0xd0 pico/cd/memory.o
                0x00048064                m68k_comm_check
 .text.m68k_reg_write8
                0x00048134      0x380 pico/cd/memory.o
                0x00048134                m68k_reg_write8
 .text.s68k_poll_detect
                0x000484b4       0xd8 pico/cd/memory.o
                0x000484b4                s68k_poll_detect
 .text.s68k_reg_read16
                0x0004858c      0x4e0 pico/cd/memory.o
                0x0004858c                s68k_reg_read16
 .text.s68k_reg_write8
                0x00048a6c      0x4b8 pico/cd/memory.o
                0x00048a6c                s68k_reg_write8
 .text.s68k_reg_write16
                0x00048f24      0x2c8 pico/cd/memory.o
                0x00048f24                s68k_reg_write16
 .text.pcd_state_loaded_mem
                0x000491ec       0xdc pico/cd/memory.o
                0x000491ec                pcd_state_loaded_mem
 .text.PicoMemSetupCD
                0x000492c8      0x40c pico/cd/memory.o
                0x000492c8                PicoMemSetupCD
 .text.SekIntAckS68k
                0x000496d4       0x64 pico/cd/sek.o
 .text.SekResetAckS68k
                0x00049738        0x4 pico/cd/sek.o
 .text.SekUnrecognizedOpcodeS68k
                0x0004973c        0x8 pico/cd/sek.o
 .text.SekInitS68k
                0x00049744       0x44 pico/cd/sek.o
                0x00049744                SekInitS68k
 .text.SekResetS68k
                0x00049788       0x34 pico/cd/sek.o
                0x00049788                SekResetS68k
 .text.SekInterruptS68k
                0x000497bc       0x58 pico/cd/sek.o
                0x000497bc                SekInterruptS68k
 .text.SekInterruptClearS68k
                0x00049814       0x58 pico/cd/sek.o
                0x00049814                SekInterruptClearS68k
 .text.cdc_init
                0x0004986c       0x14 pico/cd/cdc.o
                0x0004986c                cdc_init
 .text.cdc_reset
                0x00049880       0x7c pico/cd/cdc.o
                0x00049880                cdc_reset
 .text.cdc_context_save
                0x000498fc       0x74 pico/cd/cdc.o
                0x000498fc                cdc_context_save
 .text.cdc_context_load
                0x00049970       0xd8 pico/cd/cdc.o
                0x00049970                cdc_context_load
 .text.cdc_context_load_old
                0x00049a48      0x104 pico/cd/cdc.o
                0x00049a48                cdc_context_load_old
 .text.cdc_dma_update
                0x00049b4c      0x2f8 pico/cd/cdc.o
                0x00049b4c                cdc_dma_update
 .text.cdc_decoder_update
                0x00049e44       0xe8 pico/cd/cdc.o
                0x00049e44                cdc_decoder_update
 .text.cdc_reg_w
                0x00049f2c      0x3f4 pico/cd/cdc.o
                0x00049f2c                cdc_reg_w
 .text.cdc_reg_r
                0x0004a320      0x224 pico/cd/cdc.o
                0x0004a320                cdc_reg_r
 .text.cdc_host_r
                0x0004a544       0xe4 pico/cd/cdc.o
                0x0004a544                cdc_host_r
 .text.cdd_reset
                0x0004a628       0x3c pico/cd/cdd.o
                0x0004a628                cdd_reset
 .text.cdd_context_save
                0x0004a664       0x50 pico/cd/cdd.o
                0x0004a664                cdd_context_save
 .text.cdd_context_load
                0x0004a6b4      0x108 pico/cd/cdd.o
                0x0004a6b4                cdd_context_load
 .text.cdd_context_load_old
                0x0004a7bc       0x18 pico/cd/cdd.o
                0x0004a7bc                cdd_context_load_old
 .text.cdd_unload
                0x0004a7d4       0xfc pico/cd/cdd.o
                0x0004a7d4                cdd_unload
 .text.cdd_load
                0x0004a8d0      0x49c pico/cd/cdd.o
                0x0004a8d0                cdd_load
 .text.cdd_read_data
                0x0004ad6c       0x60 pico/cd/cdd.o
                0x0004ad6c                cdd_read_data
 .text.cdd_update
                0x0004adcc      0x364 pico/cd/cdd.o
                0x0004adcc                cdd_update
 .text.cdd_process
                0x0004b130      0xd00 pico/cd/cdd.o
                0x0004b130                cdd_process
 .text.handle_mp3
                0x0004be30       0xf8 pico/cd/cd_image.o
 .text.load_cd_image
                0x0004bf28      0x844 pico/cd/cd_image.o
                0x0004bf28                load_cd_image
 .text.cue_parse
                0x0004c76c     0x13c4 pico/cd/cue.o
                0x0004c76c                cue_parse
 .text.cue_destroy
                0x0004db30       0x4c pico/cd/cue.o
                0x0004db30                cue_destroy
 .text.gfx_init
                0x0004db7c      0x378 pico/cd/gfx.o
                0x0004db7c                gfx_init
 .text.gfx_context_save
                0x0004def4       0x94 pico/cd/gfx.o
                0x0004def4                gfx_context_save
 .text.gfx_context_load
                0x0004df88       0x88 pico/cd/gfx.o
                0x0004df88                gfx_context_load
 .text.gfx_start
                0x0004e010      0x1a4 pico/cd/gfx.o
                0x0004e010                gfx_start
 .text.gfx_update
                0x0004e1b4      0x35c pico/cd/gfx.o
                0x0004e1b4                gfx_update
 .text.DmaSlowCell
                0x0004e510      0x27c pico/cd/gfx_dma.o
                0x0004e510                DmaSlowCell
 .text.pcd_pcm_sync
                0x0004e78c      0x254 pico/cd/pcm.o
                0x0004e78c                pcd_pcm_sync
 .text.pcd_pcm_write
                0x0004e9e0       0xd0 pico/cd/pcm.o
                0x0004e9e0                pcd_pcm_write
 .text.pcd_pcm_read
                0x0004eab0       0x7c pico/cd/pcm.o
                0x0004eab0                pcd_pcm_read
 .text.pcd_pcm_update
                0x0004eb2c      0x160 pico/cd/pcm.o
                0x0004eb2c                pcd_pcm_update
 .text.sh2_irq_cb
                0x0004ec8c       0x30 pico/32x/32x.o
 .text.fillend_event
                0x0004ecbc       0x48 pico/32x/32x.o
 .text.p32x_sync_sh2s.part.1
                0x0004ed04      0x3b4 pico/32x/32x.o
 .text.hint_event
                0x0004f0b8      0x17c pico/32x/32x.o
 .text.p32x_update_irls
                0x0004f234      0x17c pico/32x/32x.o
                0x0004f234                p32x_update_irls
 .text.p32x_trigger_irq
                0x0004f3b0       0x50 pico/32x/32x.o
                0x0004f3b0                p32x_trigger_irq
 .text.p32x_update_cmd_irq
                0x0004f400       0x84 pico/32x/32x.o
                0x0004f400                p32x_update_cmd_irq
 .text.Pico32xStartup
                0x0004f484       0xd4 pico/32x/32x.o
                0x0004f484                Pico32xStartup
 .text.p32x_reset_sh2s
                0x0004f558      0x1ac pico/32x/32x.o
                0x0004f558                p32x_reset_sh2s
 .text.Pico32xInit
                0x0004f704       0x68 pico/32x/32x.o
                0x0004f704                Pico32xInit
 .text.PicoPower32x
                0x0004f76c       0x30 pico/32x/32x.o
                0x0004f76c                PicoPower32x
 .text.PicoUnload32x
                0x0004f79c       0x5c pico/32x/32x.o
                0x0004f79c                PicoUnload32x
 .text.PicoReset32x
                0x0004f7f8      0x134 pico/32x/32x.o
                0x0004f7f8                PicoReset32x
 .text.p32x_schedule_hint
                0x0004f92c      0x130 pico/32x/32x.o
                0x0004f92c                p32x_schedule_hint
 .text.p32x_event_schedule
                0x0004fa5c       0x3c pico/32x/32x.o
                0x0004fa5c                p32x_event_schedule
 .text.p32x_event_schedule_sh2
                0x0004fa98       0x94 pico/32x/32x.o
                0x0004fa98                p32x_event_schedule_sh2
 .text.p32x_sync_other_sh2
                0x0004fb2c      0x104 pico/32x/32x.o
                0x0004fb2c                p32x_sync_other_sh2
 .text.p32x_sync_sh2s
                0x0004fc30       0x30 pico/32x/32x.o
                0x0004fc30                p32x_sync_sh2s
 .text.PicoFrame32x
                0x0004fc60     0x1164 pico/32x/32x.o
                0x0004fc60                PicoFrame32x
 .text.Pico32xSetClocks
                0x00050dc4       0x7c pico/32x/32x.o
                0x00050dc4                Pico32xSetClocks
 .text.Pico32xStateLoaded
                0x00050e40      0x1c4 pico/32x/32x.o
                0x00050e40                Pico32xStateLoaded
 .text.m68k_write16_dram0_ow
                0x00051004       0x48 pico/32x/memory.o
 .text.m68k_write16_dram1_ow
                0x0005104c       0x48 pico/32x/memory.o
 .text.PicoWrite8_hint
                0x00051094       0x30 pico/32x/memory.o
 .text.sh2_read8_unmapped
                0x000510c4        0x8 pico/32x/memory.o
 .text.sh2_read8_da
                0x000510cc       0x14 pico/32x/memory.o
 .text.sh2_read16_unmapped
                0x000510e0        0x8 pico/32x/memory.o
 .text.sh2_read16_da
                0x000510e8       0x10 pico/32x/memory.o
 .text.sh2_write_ignore
                0x000510f8        0x4 pico/32x/memory.o
 .text.sh2_write8_unmapped
                0x000510fc        0x4 pico/32x/memory.o
 .text.sh2_write16_unmapped
                0x00051100        0x4 pico/32x/memory.o
 .text.sh2_write16_dram0
                0x00051104       0x48 pico/32x/memory.o
 .text.sh2_write16_dram1
                0x0005114c       0x48 pico/32x/memory.o
 .text.PicoRead16_bank
                0x00051194       0x14 pico/32x/memory.o
 .text.PicoRead8_bank
                0x000511a8       0x14 pico/32x/memory.o
 .text.z80_md_bank_write_32x
                0x000511bc       0x50 pico/32x/memory.o
 .text.PicoWrite8_bank
                0x0005120c       0x18 pico/32x/memory.o
 .text.PicoWrite8_cart
                0x00051224        0xc pico/32x/memory.o
 .text.sh2_write16_da
                0x00051230       0x48 pico/32x/memory.o
 .text.sh2_write8_da
                0x00051278       0x50 pico/32x/memory.o
 .text.sh2_write16_sdram
                0x000512c8       0x44 pico/32x/memory.o
 .text.sh2_write8_sdram
                0x0005130c       0x48 pico/32x/memory.o
 .text.PicoWrite16_bank
                0x00051354       0x18 pico/32x/memory.o
 .text.PicoWrite16_cart
                0x0005136c        0xc pico/32x/memory.o
 .text.m68k_write8_dram0_ow
                0x00051378       0x2c pico/32x/memory.o
 .text.m68k_write8_dram1_ow
                0x000513a4       0x2c pico/32x/memory.o
 .text.PicoWrite16_hint
                0x000513d0       0x30 pico/32x/memory.o
 .text.sh2_write8_dram0
                0x00051400       0x2c pico/32x/memory.o
 .text.sh2_write8_dram1
                0x0005142c       0x2c pico/32x/memory.o
 .text.p32x_reg_read16
                0x00051458      0x1dc pico/32x/memory.o
 .text.PicoRead8_32x_on
                0x00051634      0x110 pico/32x/memory.o
 .text.sh2_write8_sdram_wt
                0x00051744       0x84 pico/32x/memory.o
 .text.bank_switch.part.5
                0x000517c8      0x108 pico/32x/memory.o
 .text.p32x_reg_write8
                0x000518d0      0x520 pico/32x/memory.o
 .text.p32x_reg_write16
                0x00051df0      0x414 pico/32x/memory.o
 .text.p32x_sh2reg_read16
                0x00052204      0x330 pico/32x/memory.o
 .text.sh2_read16_cs0
                0x00052534      0x190 pico/32x/memory.o
 .text.sh2_read8_cs0
                0x000526c4      0x1a8 pico/32x/memory.o
 .text.PicoRead16_32x_on
                0x0005286c       0xf4 pico/32x/memory.o
 .text.p32x_sh2_poll_event
                0x00052960       0x34 pico/32x/memory.o
                0x00052960                p32x_sh2_poll_event
 .text.PicoRead8_32x
                0x00052994       0x50 pico/32x/memory.o
                0x00052994                PicoRead8_32x
 .text.PicoRead16_32x
                0x000529e4       0x54 pico/32x/memory.o
                0x000529e4                PicoRead16_32x
 .text.PicoWrite8_32x
                0x00052a38       0x88 pico/32x/memory.o
                0x00052a38                PicoWrite8_32x
 .text.PicoWrite16_32x
                0x00052ac0       0x80 pico/32x/memory.o
                0x00052ac0                PicoWrite16_32x
 .text.p32x_sh2_read8
                0x00052b40       0x40 pico/32x/memory.o
                0x00052b40                p32x_sh2_read8
 .text.p32x_sh2_read16
                0x00052b80       0x44 pico/32x/memory.o
                0x00052b80                p32x_sh2_read16
 .text.p32x_sh2_read32
                0x00052bc4       0x80 pico/32x/memory.o
                0x00052bc4                p32x_sh2_read32
 .text.p32x_sh2_write8
                0x00052c44       0x10 pico/32x/memory.o
                0x00052c44                p32x_sh2_write8
 .text.p32x_sh2_write16
                0x00052c54       0x10 pico/32x/memory.o
                0x00052c54                p32x_sh2_write16
 .text.p32x_sh2_write32
                0x00052c64       0x4c pico/32x/memory.o
                0x00052c64                p32x_sh2_write32
 .text.Pico32xSwapDRAM
                0x00052cb0      0x1e8 pico/32x/memory.o
                0x00052cb0                Pico32xSwapDRAM
 .text.p32x_vdp_write8
                0x00052e98       0xe0 pico/32x/memory.o
 .text.sh2_write8_cs0
                0x00052f78      0x438 pico/32x/memory.o
 .text.PicoWrite8_32x_on
                0x000533b0       0xf0 pico/32x/memory.o
 .text.sh2_write16_cs0
                0x000534a0      0x66c pico/32x/memory.o
 .text.PicoWrite16_32x_on
                0x00053b0c      0x168 pico/32x/memory.o
 .text.PicoMemSetup32x
                0x00053c74      0x838 pico/32x/memory.o
                0x00053c74                PicoMemSetup32x
 .text.Pico32xMemStateLoaded
                0x000544ac       0xb4 pico/32x/memory.o
                0x000544ac                Pico32xMemStateLoaded
 .text.do_loop_dc
                0x00054560       0xbc pico/32x/draw.o
 .text.do_loop_pp
                0x0005461c       0xd4 pico/32x/draw.o
 .text.do_loop_rl
                0x000546f0      0x108 pico/32x/draw.o
 .text.do_loop_dc_md
                0x000547f8      0x100 pico/32x/draw.o
 .text.do_loop_pp_md
                0x000548f8       0xe8 pico/32x/draw.o
 .text.do_loop_rl_md
                0x000549e0      0x120 pico/32x/draw.o
 .text.do_loop_dc_scan
                0x00054b00      0x124 pico/32x/draw.o
 .text.do_loop_pp_scan
                0x00054c24      0x13c pico/32x/draw.o
 .text.do_loop_rl_scan
                0x00054d60      0x178 pico/32x/draw.o
 .text.do_loop_dc_scan_md
                0x00054ed8      0x160 pico/32x/draw.o
 .text.do_loop_pp_scan_md
                0x00055038      0x144 pico/32x/draw.o
 .text.do_loop_rl_scan_md
                0x0005517c      0x198 pico/32x/draw.o
 .text.FinalizeLine32xRGB555
                0x00055314      0x2b4 pico/32x/draw.o
                0x00055314                FinalizeLine32xRGB555
 .text.PicoDraw32xLayer
                0x000555c8      0x228 pico/32x/draw.o
                0x000555c8                PicoDraw32xLayer
 .text.PicoDraw32xLayerMdOnly
                0x000557f0      0x1f8 pico/32x/draw.o
                0x000557f0                PicoDraw32xLayerMdOnly
 .text.PicoDrawSetOutFormat32x
                0x000559e8       0x74 pico/32x/draw.o
                0x000559e8                PicoDrawSetOutFormat32x
 .text.dmac_transfer_one
                0x00055a5c      0x1a8 pico/32x/sh2soc.o
 .text.dreq0_do
                0x00055c04      0x18c pico/32x/sh2soc.o
 .text.dmac_trigger
                0x00055d90      0x2d4 pico/32x/sh2soc.o
 .text.p32x_timers_recalc
                0x00056064       0x5c pico/32x/sh2soc.o
                0x00056064                p32x_timers_recalc
 .text.p32x_timers_do
                0x000560c0       0xbc pico/32x/sh2soc.o
                0x000560c0                p32x_timers_do
 .text.sh2_peripheral_reset
                0x0005617c       0x48 pico/32x/sh2soc.o
                0x0005617c                sh2_peripheral_reset
 .text.sh2_peripheral_read8
                0x000561c4       0x18 pico/32x/sh2soc.o
                0x000561c4                sh2_peripheral_read8
 .text.sh2_peripheral_read16
                0x000561dc       0x18 pico/32x/sh2soc.o
                0x000561dc                sh2_peripheral_read16
 .text.sh2_peripheral_read32
                0x000561f4       0x18 pico/32x/sh2soc.o
                0x000561f4                sh2_peripheral_read32
 .text.sh2_peripheral_write8
                0x0005620c      0x22c pico/32x/sh2soc.o
                0x0005620c                sh2_peripheral_write8
 .text.sh2_peripheral_write16
                0x00056438       0xa4 pico/32x/sh2soc.o
                0x00056438                sh2_peripheral_write16
 .text.sh2_peripheral_write32
                0x000564dc      0x1cc pico/32x/sh2soc.o
                0x000564dc                sh2_peripheral_write32
 .text.p32x_dreq0_trigger
                0x000566a8       0x78 pico/32x/sh2soc.o
                0x000566a8                p32x_dreq0_trigger
 .text.p32x_dreq1_trigger
                0x00056720      0x13c pico/32x/sh2soc.o
                0x00056720                p32x_dreq1_trigger
 .text.consume_fifo_do
                0x0005685c      0x240 pico/32x/pwm.o
 .text.p32x_pwm_ctl_changed
                0x00056a9c       0x6c pico/32x/pwm.o
                0x00056a9c                p32x_pwm_ctl_changed
 .text.p32x_pwm_schedule_sh2
                0x00056b08       0xc0 pico/32x/pwm.o
                0x00056b08                p32x_pwm_schedule_sh2
 .text.p32x_pwm_sync_to_sh2
                0x00056bc8       0x58 pico/32x/pwm.o
                0x00056bc8                p32x_pwm_sync_to_sh2
 .text.p32x_pwm_irq_event
                0x00056c20       0xa4 pico/32x/pwm.o
                0x00056c20                p32x_pwm_irq_event
 .text.p32x_pwm_read16
                0x00056cc4       0xbc pico/32x/pwm.o
                0x00056cc4                p32x_pwm_read16
 .text.p32x_pwm_write16
                0x00056d80      0x1f4 pico/32x/pwm.o
                0x00056d80                p32x_pwm_write16
 .text.p32x_pwm_update
                0x00056f74      0x254 pico/32x/pwm.o
                0x00056f74                p32x_pwm_update
 .text.p32x_pwm_state_loaded
                0x000571c8       0xf0 pico/32x/pwm.o
                0x000571c8                p32x_pwm_state_loaded
 .text.PicoLinePico
                0x000572b8      0x114 pico/pico/pico.o
 .text.PicoResetPico
                0x000573cc       0x1c pico/pico/pico.o
 .text.PicoReratePico
                0x000573e8       0x80 pico/pico/pico.o
                0x000573e8                PicoReratePico
 .text.PicoInitPico
                0x00057468       0xe4 pico/pico/pico.o
                0x00057468                PicoInitPico
 .text.PicoWrite8_pico
                0x0005754c        0x4 pico/pico/memory.o
 .text.PicoRead8_pico
                0x00057550      0x124 pico/pico/memory.o
 .text.PicoRead16_pico
                0x00057674       0x60 pico/pico/memory.o
 .text.PicoWrite16_pico
                0x000576d4       0x94 pico/pico/memory.o
 .text.PicoMemSetupPico
                0x00057768       0xb0 pico/pico/memory.o
                0x00057768                PicoMemSetupPico
 .text.PicoPicoPCMReset
                0x00057818       0x38 pico/pico/xpcm.o
                0x00057818                PicoPicoPCMReset
 .text.PicoPicoPCMRerate
                0x00057850       0x2c pico/pico/xpcm.o
                0x00057850                PicoPicoPCMRerate
 .text.PicoPicoPCMUpdate
                0x0005787c      0x3a8 pico/pico/xpcm.o
                0x0005787c                PicoPicoPCMUpdate
 .text.PicoWrite8_plk3p
                0x00057c24       0x18 pico/carthw/carthw.o
 .text.carthw_ssf2_mem_setup
                0x00057c3c       0x38 pico/carthw/carthw.o
 .text.carthw_Xin1_mem_setup
                0x00057c74       0x38 pico/carthw/carthw.o
 .text.carthw_realtec_reset
                0x00057cac       0xb8 pico/carthw/carthw.o
 .text.carthw_realtec_write8
                0x00057d64      0x144 pico/carthw/carthw.o
 .text.carthw_radica_mem_setup
                0x00057ea8       0x38 pico/carthw/carthw.o
 .text.carthw_pier_mem_setup
                0x00057ee0       0x7c pico/carthw/carthw.o
 .text.carthw_sprot_mem_setup
                0x00057f5c      0x168 pico/carthw/carthw.o
 .text.carthw_prot_lk3_mem_setup
                0x000580c4       0x80 pico/carthw/carthw.o
 .text.PicoWrite8_plk3b
                0x00058144       0x3c pico/carthw/carthw.o
 .text.carthw_pier_read8
                0x00058180       0x24 pico/carthw/carthw.o
 .text.carthw_sprot_unload
                0x000581a4       0x28 pico/carthw/carthw.o
 .text.PicoRead8_plk3
                0x000581cc       0x7c pico/carthw/carthw.o
 .text.carthw_ssf2_write8
                0x00058248       0xd8 pico/carthw/carthw.o
 .text.carthw_pier_write8
                0x00058320      0x19c pico/carthw/carthw.o
 .text.PicoRead8_sprot
                0x000584bc       0x90 pico/carthw/carthw.o
 .text.PicoWrite8_sprot
                0x0005854c       0xa8 pico/carthw/carthw.o
 .text.carthw_pier_write8.part.3.constprop.13
                0x000585f4       0x10 pico/carthw/carthw.o
 .text.carthw_pier_statef
                0x00058604      0x3c0 pico/carthw/carthw.o
 .text.carthw_pier_prot_read8
                0x000589c4       0x84 pico/carthw/carthw.o
 .text.carthw_pier_reset
                0x00058a48       0x1c pico/carthw/carthw.o
 .text.carthw_Xin1_statef
                0x00058a64       0xd8 pico/carthw/carthw.o
 .text.PicoRead16_sprot
                0x00058b3c       0x80 pico/carthw/carthw.o
 .text.carthw_ssf2_statef
                0x00058bbc       0xd8 pico/carthw/carthw.o
 .text.PicoWrite16_sprot
                0x00058c94       0x80 pico/carthw/carthw.o
 .text.carthw_pier_write16
                0x00058d14      0x1c0 pico/carthw/carthw.o
 .text.carthw_Xin1_reset
                0x00058ed4       0xac pico/carthw/carthw.o
 .text.carthw_radica_reset
                0x00058f80       0xac pico/carthw/carthw.o
 .text.carthw_Xin1_write8
                0x0005902c       0xd4 pico/carthw/carthw.o
 .text.carthw_radica_read16
                0x00059100       0xd4 pico/carthw/carthw.o
 .text.carthw_radica_statef
                0x000591d4       0xd4 pico/carthw/carthw.o
 .text.carthw_ssf2_startup
                0x000592a8       0xac pico/carthw/carthw.o
                0x000592a8                carthw_ssf2_startup
 .text.carthw_Xin1_startup
                0x00059354       0x78 pico/carthw/carthw.o
                0x00059354                carthw_Xin1_startup
 .text.carthw_realtec_startup
                0x000593cc       0x94 pico/carthw/carthw.o
                0x000593cc                carthw_realtec_startup
 .text.carthw_radica_startup
                0x00059460       0x78 pico/carthw/carthw.o
                0x00059460                carthw_radica_startup
 .text.carthw_pier_startup
                0x000594d8       0xd4 pico/carthw/carthw.o
                0x000594d8                carthw_pier_startup
 .text.carthw_sprot_new_location
                0x000595ac       0xc8 pico/carthw/carthw.o
                0x000595ac                carthw_sprot_new_location
 .text.carthw_sprot_startup
                0x00059674       0x50 pico/carthw/carthw.o
                0x00059674                carthw_sprot_startup
 .text.carthw_prot_lk3_startup
                0x000596c4       0x80 pico/carthw/carthw.o
                0x000596c4                carthw_prot_lk3_startup
 .text.PicoSVPExit
                0x00059744        0x4 pico/carthw/svp/svp.o
 .text.PicoSVPLine
                0x00059748       0xa0 pico/carthw/svp/svp.o
 .text.PicoSVPDma
                0x000597e8       0x90 pico/carthw/svp/svp.o
 .text.PicoSVPReset
                0x00059878       0x64 pico/carthw/svp/svp.o
 .text.PicoSVPInit
                0x000598dc        0x4 pico/carthw/svp/svp.o
                0x000598dc                PicoSVPInit
 .text.PicoSVPStartup
                0x000598e0      0x158 pico/carthw/svp/svp.o
                0x000598e0                PicoSVPStartup
 .text.PicoWrite16_dram
                0x00059a38       0x88 pico/carthw/svp/memory.o
 .text.PicoRead16_svpca1
                0x00059ac0       0x3c pico/carthw/svp/memory.o
 .text.PicoRead16_svpca2
                0x00059afc       0x3c pico/carthw/svp/memory.o
 .text.PicoWrite16_svpr
                0x00059b38       0x64 pico/carthw/svp/memory.o
 .text.PicoRead16_svpr
                0x00059b9c       0x7c pico/carthw/svp/memory.o
 .text.PicoRead8_svpr
                0x00059c18       0x8c pico/carthw/svp/memory.o
 .text.PicoSVPMemSetup
                0x00059ca4      0x190 pico/carthw/svp/memory.o
                0x00059ca4                PicoSVPMemSetup
 .text.read_unknown
                0x00059e34        0x8 pico/carthw/svp/ssp16.o
 .text.write_unknown
                0x00059e3c        0x4 pico/carthw/svp/ssp16.o
 .text.write_ST
                0x00059e40       0x18 pico/carthw/svp/ssp16.o
 .text.read_STACK
                0x00059e58       0x38 pico/carthw/svp/ssp16.o
 .text.write_STACK
                0x00059e90       0x40 pico/carthw/svp/ssp16.o
 .text.read_PC  0x00059ed0       0x24 pico/carthw/svp/ssp16.o
 .text.write_PC
                0x00059ef4       0x2c pico/carthw/svp/ssp16.o
 .text.read_P   0x00059f20       0x30 pico/carthw/svp/ssp16.o
 .text.read_PMC
                0x00059f50       0x50 pico/carthw/svp/ssp16.o
 .text.write_PMC
                0x00059fa0       0x34 pico/carthw/svp/ssp16.o
 .text.read_AL  0x00059fd4       0x24 pico/carthw/svp/ssp16.o
 .text.write_AL
                0x00059ff8       0x18 pico/carthw/svp/ssp16.o
 .text.ptr1_read_
                0x0005a010      0x354 pico/carthw/svp/ssp16.o
 .text.ptr1_write
                0x0005a364      0x250 pico/carthw/svp/ssp16.o
 .text.ptr2_read
                0x0005a5b4      0x1f8 pico/carthw/svp/ssp16.o
 .text.write_XST
                0x0005a7ac      0x284 pico/carthw/svp/ssp16.o
 .text.read_PM1
                0x0005aa30      0x140 pico/carthw/svp/ssp16.o
 .text.read_PM2
                0x0005ab70      0x140 pico/carthw/svp/ssp16.o
 .text.read_XST
                0x0005acb0      0x140 pico/carthw/svp/ssp16.o
 .text.read_PM4
                0x0005adf0      0x180 pico/carthw/svp/ssp16.o
 .text.read_PM0
                0x0005af70      0x184 pico/carthw/svp/ssp16.o
 .text.write_PM4
                0x0005b0f4      0x264 pico/carthw/svp/ssp16.o
 .text.write_PM1
                0x0005b358      0x274 pico/carthw/svp/ssp16.o
 .text.write_PM2
                0x0005b5cc      0x274 pico/carthw/svp/ssp16.o
 .text.write_PM0
                0x0005b840      0x274 pico/carthw/svp/ssp16.o
 .text.ssp1601_reset
                0x0005bab4       0x44 pico/carthw/svp/ssp16.o
                0x0005bab4                ssp1601_reset
 .text.ssp1601_run
                0x0005baf8     0x1cf8 pico/carthw/svp/ssp16.o
                0x0005baf8                ssp1601_run
 .text          0x0005d7f0      0x758 pico/carthw/svp/stub_arm.o
                0x0005d7f0                ssp_drc_entry
                0x0005d848                ssp_drc_next
                0x0005d8e0                ssp_drc_next_patch
                0x0005d9ec                ssp_drc_end
                0x0005da44                ssp_hle_800
                0x0005da6c                ssp_hle_902
                0x0005db28                ssp_hle_11_12c
                0x0005dc24                ssp_hle_11_384
                0x0005dc2c                ssp_hle_11_38a
                0x0005dcc4                ssp_hle_07_6d6
                0x0005dd44                ssp_hle_07_030
                0x0005dd58                ssp_hle_07_036
 .text.ssp_pm_read
                0x0005df48       0xfc pico/carthw/svp/compiler.o
                0x0005df48                ssp_pm_read
 .text.ssp_pm_write
                0x0005e044      0x250 pico/carthw/svp/compiler.o
                0x0005e044                ssp_pm_write
 .text.tr_unhandled
                0x0005e294        0x4 pico/carthw/svp/compiler.o
                0x0005e294                tr_unhandled
 .text.tr_X_to_r0
                0x0005e298       0x34 pico/carthw/svp/compiler.o
 .text.tr_Y_to_r0
                0x0005e2cc       0x34 pico/carthw/svp/compiler.o
 .text.tr_A_to_r0
                0x0005e300       0x34 pico/carthw/svp/compiler.o
 .text.tr_ST_to_r0
                0x0005e334       0x38 pico/carthw/svp/compiler.o
 .text.tr_STACK_to_r0
                0x0005e36c       0x64 pico/carthw/svp/compiler.o
 .text.tr_AL_to_r0
                0x0005e3d0       0x90 pico/carthw/svp/compiler.o
 .text.tr_XST_to_r0
                0x0005e460       0x2c pico/carthw/svp/compiler.o
 .text.tr_r0_to_GR0
                0x0005e48c        0x4 pico/carthw/svp/compiler.o
 .text.tr_r0_to_ST
                0x0005e490       0xa8 pico/carthw/svp/compiler.o
 .text.tr_r0_to_STACK
                0x0005e538       0x60 pico/carthw/svp/compiler.o
 .text.tr_r0_to_PC
                0x0005e598        0x4 pico/carthw/svp/compiler.o
 .text.ssp1601_state_load
                0x0005e59c       0x20 pico/carthw/svp/compiler.o
 .text.tr_ptrr_mod.part.2
                0x0005e5bc      0x360 pico/carthw/svp/compiler.o
 .text.tr_r0_to_X
                0x0005e91c       0xc0 pico/carthw/svp/compiler.o
 .text.tr_r0_to_Y
                0x0005e9dc       0xc0 pico/carthw/svp/compiler.o
 .text.tr_r0_to_A
                0x0005ea9c      0x31c pico/carthw/svp/compiler.o
 .text.tr_r0_to_AL
                0x0005edb8       0xb0 pico/carthw/svp/compiler.o
 .text.tr_P_to_r0
                0x0005ee68       0x7c pico/carthw/svp/compiler.o
 .text.tr_GR0_to_r0
                0x0005eee4       0x90 pico/carthw/svp/compiler.o
 .text.tr_PC_to_r0
                0x0005ef74       0xa0 pico/carthw/svp/compiler.o
 .text.tr_PMC_to_r0
                0x0005f014      0x17c pico/carthw/svp/compiler.o
 .text.tr_rX_write
                0x0005f190      0x22c pico/carthw/svp/compiler.o
 .text.tr_r0_to_PMC
                0x0005f3bc      0x1d0 pico/carthw/svp/compiler.o
 .text.tr_rX_read
                0x0005f58c      0x238 pico/carthw/svp/compiler.o
 .text.tr_mac_load_XY
                0x0005f7c4      0x128 pico/carthw/svp/compiler.o
 .text.tr_rX_read2
                0x0005f8ec      0x388 pico/carthw/svp/compiler.o
 .text.tr_PM1_to_r0
                0x0005fc74      0x338 pico/carthw/svp/compiler.o
 .text.tr_PM0_to_r0
                0x0005ffac      0x338 pico/carthw/svp/compiler.o
 .text.tr_PM4_to_r0
                0x000602e4      0x3f8 pico/carthw/svp/compiler.o
 .text.tr_PM2_to_r0
                0x000606dc      0x338 pico/carthw/svp/compiler.o
 .text.tr_r0_to_PMX
                0x00060a14      0x520 pico/carthw/svp/compiler.o
 .text.tr_r0_to_PM4
                0x00060f34        0x8 pico/carthw/svp/compiler.o
 .text.tr_r0_to_PM2
                0x00060f3c        0x8 pico/carthw/svp/compiler.o
 .text.tr_r0_to_PM1
                0x00060f44        0x8 pico/carthw/svp/compiler.o
 .text.tr_r0_to_PM0
                0x00060f4c        0x8 pico/carthw/svp/compiler.o
 .text.ssp_get_iram_context
                0x00060f54       0x3c pico/carthw/svp/compiler.o
                0x00060f54                ssp_get_iram_context
 .text.ssp_translate_block
                0x00060f90     0x2db8 pico/carthw/svp/compiler.o
                0x00060f90                ssp_translate_block
 .text.ssp1601_dyn_exit
                0x00063d48       0x30 pico/carthw/svp/compiler.o
                0x00063d48                ssp1601_dyn_exit
 .text.ssp1601_dyn_startup
                0x00063d78      0x10c pico/carthw/svp/compiler.o
                0x00063d78                ssp1601_dyn_startup
 .text.ssp1601_dyn_reset
                0x00063e84       0x70 pico/carthw/svp/compiler.o
                0x00063e84                ssp1601_dyn_reset
 .text.ssp1601_dyn_run
                0x00063ef4       0x20 pico/carthw/svp/compiler.o
                0x00063ef4                ssp1601_dyn_run
 .text.dac_recalculate
                0x00063f14      0x1b4 pico/sound/sound.o
 .text.PsndRender
                0x000640c8      0x314 pico/sound/sound.o
 .text.PsndReset
                0x000643dc      0x1d4 pico/sound/sound.o
                0x000643dc                PsndReset
 .text.PsndRerate
                0x000645b0      0x2bc pico/sound/sound.o
                0x000645b0                PsndRerate
 .text.PsndDoDAC
                0x0006486c      0x1a8 pico/sound/sound.o
                0x0006486c                PsndDoDAC
 .text.cdda_start_play
                0x00064a14       0x90 pico/sound/sound.o
                0x00064a14                cdda_start_play
 .text.PsndGetSamples
                0x00064aa4      0x168 pico/sound/sound.o
                0x00064aa4                PsndGetSamples
 .text.PsndGetSamplesMS
                0x00064c0c      0x128 pico/sound/sound.o
                0x00064c0c                PsndGetSamplesMS
 .text.SN76496Write
                0x00064d34      0x21c pico/sound/sn76496.o
                0x00064d34                SN76496Write
 .text.SN76496Update
                0x00064f50      0x304 pico/sound/sn76496.o
                0x00064f50                SN76496Update
 *fill*         0x00065254        0x4 00000000
 .text.SN76496_init
                0x00065258      0x148 pico/sound/sn76496.o
                0x00065258                SN76496_init
 .text.chan_render
                0x000653a0      0x300 pico/sound/ym2612.o
 .text.FM_KEYON.part.1
                0x000656a0       0x54 pico/sound/ym2612.o
 .text.OPNWriteReg
                0x000656f4      0x46c pico/sound/ym2612.o
 .text.OPNWriteReg.constprop.7
                0x00065b60      0x394 pico/sound/ym2612.o
 .text.YM2612UpdateOne_
                0x00065ef4     0x1d58 pico/sound/ym2612.o
                0x00065ef4                YM2612UpdateOne_
 .text.YM2612ResetChip_
                0x00067c4c      0x950 pico/sound/ym2612.o
                0x00067c4c                YM2612ResetChip_
 *fill*         0x0006859c        0x4 00000000
 .text.YM2612Init_
                0x000685a0     0x3548 pico/sound/ym2612.o
                0x000685a0                YM2612Init_
 .text.YM2612Write_
                0x0006bae8      0x2c4 pico/sound/ym2612.o
                0x0006bae8                YM2612Write_
 .text.YM2612PicoStateLoad_
                0x0006bdac      0x19c pico/sound/ym2612.o
                0x0006bdac                YM2612PicoStateLoad_
 .text.YM2612PicoStateSave2
                0x0006bf48      0x224 pico/sound/ym2612.o
                0x0006bf48                YM2612PicoStateSave2
 .text.YM2612PicoStateLoad2
                0x0006c16c      0x340 pico/sound/ym2612.o
                0x0006c16c                YM2612PicoStateLoad2
 .text.YM2612GetRegs
                0x0006c4ac        0xc pico/sound/ym2612.o
                0x0006c4ac                YM2612GetRegs
 .text          0x0006c4b8      0x180 pico/m68kif_cyclone.o
                0x0006c4b8                cyclone_checkpc
                0x0006c508                cyclone_read8
                0x0006c508                cyclone_fetch8
                0x0006c52c                cyclone_fetch16
                0x0006c52c                cyclone_read16
                0x0006c550                cyclone_read32
                0x0006c550                cyclone_fetch32
                0x0006c5ac                cyclone_write8
                0x0006c5d0                cyclone_write16
                0x0006c5f4                cyclone_write32
 *fill*         0x0006c638        0x8 00000000
 .text          0x0006c640    0x23100 cpu/cyclone/Cyclone.o
                0x0006c640                CycloneVer
                0x0006c644                CycloneRun
                0x0006c6d4                CycloneInit
                0x0006c6ec                CycloneReset
                0x0006c730                CycloneSetSr
                0x0006c760                CycloneGetSr
                0x0006c790                CyclonePack
                0x0006c7e8                CycloneUnpack
                0x0006c850                CycloneFlushIrq
                0x0006c8a8                CycloneSetRealTAS
                0x0006ca1c                CycloneDoInterrupt
                0x0006cd3c                CycloneDoTrace
                0x0006cdac                Op____
                0x0006cea8                Op6702
                0x0006ced8                Op6602
                0x0006d090                Op6002
 .text          0x0008f740      0x184 cpu/cyclone/tools/idle.o
                0x0008f740                CycloneInitIdle
                0x0008f78c                CycloneFinishIdle
 *fill*         0x0008f8c4        0xc 00000000
 .text          0x0008f8d0     0x7670 cpu/DrZ80/drz80.o
                0x0008fa54                DrZ80Run
 .text.drc_cmn_init
                0x00096f40       0xf0 cpu/drc/cmn.o
                0x00096f40                drc_cmn_init
 .text.drc_cmn_cleanup
                0x00097030        0x4 cpu/drc/cmn.o
                0x00097030                drc_cmn_cleanup
 .text.sh2_init
                0x00097034       0x40 cpu/sh2/sh2.o
                0x00097034                sh2_init
 .text.sh2_finish
                0x00097074        0x4 cpu/sh2/sh2.o
                0x00097074                sh2_finish
 .text.sh2_reset
                0x00097078       0x40 cpu/sh2/sh2.o
                0x00097078                sh2_reset
 .text.sh2_do_irq
                0x000970b8       0x80 cpu/sh2/sh2.o
                0x000970b8                sh2_do_irq
 .text.sh2_irl_irq
                0x00097138       0xec cpu/sh2/sh2.o
                0x00097138                sh2_irl_irq
 .text.sh2_internal_irq
                0x00097224       0x20 cpu/sh2/sh2.o
                0x00097224                sh2_internal_irq
 .text.sh2_pack
                0x00097244       0x2c cpu/sh2/sh2.o
                0x00097244                sh2_pack
 .text.sh2_unpack
                0x00097270       0x2c cpu/sh2/sh2.o
                0x00097270                sh2_unpack
 .text.gconst_new
                0x0009729c      0x168 cpu/sh2/compiler.o
 .text.flush_tcache
                0x00097404       0xf8 cpu/sh2/compiler.o
 .text.rcache_evict
                0x000974fc      0x224 cpu/sh2/compiler.o
 .text.dr_failure
                0x00097720       0x18 cpu/sh2/compiler.o
 .text.rcache_free_tmp
                0x00097738       0xd0 cpu/sh2/compiler.o
 .text.rcache_get_arg_id
                0x00097808      0x164 cpu/sh2/compiler.o
 .text.rcache_get_reg_.constprop.11
                0x0009796c      0x224 cpu/sh2/compiler.o
 .text.emith_op_imm2.constprop.16
                0x00097b90      0x100 cpu/sh2/compiler.o
 .text.dr_lookup_block
                0x00097c90       0x9c cpu/sh2/compiler.o
 .text.dr_prepare_ext_branch
                0x00097d2c      0x158 cpu/sh2/compiler.o
 .text.rcache_get_tmp
                0x00097e84      0x2a8 cpu/sh2/compiler.o
 .text.rcache_clean
                0x0009812c      0x6e8 cpu/sh2/compiler.o
 .text.rcache_flush
                0x00098814      0x73c cpu/sh2/compiler.o
 .text.rcache_get_reg_arg
                0x00098f50      0x57c cpu/sh2/compiler.o
 .text.emit_memhandler_write
                0x000994cc      0x88c cpu/sh2/compiler.o
 .text.emit_memhandler_read_.isra.1.constprop.9
                0x00099d58      0x818 cpu/sh2/compiler.o
 .text.emit_memhandler_read_.isra.1
                0x0009a570      0x89c cpu/sh2/compiler.o
 .text.emit_memhandler_read_rr
                0x0009ae0c      0x540 cpu/sh2/compiler.o
 .text.rcache_get_reg_.constprop.12
                0x0009b34c      0x40c cpu/sh2/compiler.o
 .text.emit_memhandler_read_rr.constprop.8
                0x0009b758      0x828 cpu/sh2/compiler.o
 .text.sh2_smc_rm_block.constprop.3
                0x0009bf80      0x818 cpu/sh2/compiler.o
 .text.rcache_get_reg_.constprop.10
                0x0009c798       0xf8 cpu/sh2/compiler.o
 .text.rcache_get_reg_
                0x0009c890      0x49c cpu/sh2/compiler.o
 .text.emit_indirect_read_double
                0x0009cd2c      0x5a0 cpu/sh2/compiler.o
 .text.emit_indirect_indexed_read.constprop.7
                0x0009d2cc      0x450 cpu/sh2/compiler.o
 .text.sh2_drc_wcheck_ram
                0x0009d71c       0x20 cpu/sh2/compiler.o
                0x0009d71c                sh2_drc_wcheck_ram
 .text.sh2_drc_wcheck_da
                0x0009d73c       0x20 cpu/sh2/compiler.o
                0x0009d73c                sh2_drc_wcheck_da
 .text.sh2_execute_drc
                0x0009d75c       0x40 cpu/sh2/compiler.o
                0x0009d75c                sh2_execute_drc
 .text.sh2_drc_flush_all
                0x0009d79c      0x190 cpu/sh2/compiler.o
                0x0009d79c                sh2_drc_flush_all
 .text.sh2_drc_mem_setup
                0x0009d92c       0x40 cpu/sh2/compiler.o
                0x0009d92c                sh2_drc_mem_setup
 .text.sh2_drc_frame
                0x0009d96c       0x1c cpu/sh2/compiler.o
                0x0009d96c                sh2_drc_frame
 .text.sh2_drc_init
                0x0009d988      0xf18 cpu/sh2/compiler.o
                0x0009d988                sh2_drc_init
 .text.sh2_drc_finish
                0x0009e8a0      0x208 cpu/sh2/compiler.o
                0x0009e8a0                sh2_drc_finish
 .text.scan_block
                0x0009eaa8     0x16c4 cpu/sh2/compiler.o
                0x0009eaa8                scan_block
 .text.sh2_translate
                0x000a016c     0x7c74 cpu/sh2/compiler.o
 .text.MAC_W    0x000a7de0      0x108 cpu/sh2/mame/sh2pico.o
 .text.ILLEGAL  0x000a7ee8       0xc4 cpu/sh2/mame/sh2pico.o
 .text.MAC_L    0x000a7fac      0x184 cpu/sh2/mame/sh2pico.o
 .text.op0000   0x000a8130      0x508 cpu/sh2/mame/sh2pico.o
 .text.sh2_execute_interpreter
                0x000a8638     0x1c60 cpu/sh2/mame/sh2pico.o
                0x000a8638                sh2_execute_interpreter
 .text          0x000aa298      0x2b0 /media/BBB/lib/gcc/arm-linux-gnueabihf/4.9.1/libgcc.a(_divsi3.o)
                0x000aa298                __divsi3
                0x000aa298                __aeabi_idiv
                0x000aa52c                __aeabi_idivmod
 .text          0x000aa548       0x38 /media/BBB/lib/gcc/arm-linux-gnueabihf/4.9.1/libgcc.a(_aeabi_ldivmod.o)
                0x000aa548                __aeabi_ldivmod
 .text          0x000aa580        0xc /media/BBB/lib/gcc/arm-linux-gnueabihf/4.9.1/libgcc.a(_dvmd_lnx.o)
                0x000aa580                __aeabi_idiv0
                0x000aa580                __aeabi_ldiv0
 .text          0x000aa58c       0x60 /media/BBB/lib/gcc/arm-linux-gnueabihf/4.9.1/libgcc.a(bpabi.o)
                0x000aa58c                __gnu_ldivmod_helper
                0x000aa5bc                __gnu_uldivmod_helper
 .text          0x000aa5ec      0x19c /media/BBB/lib/gcc/arm-linux-gnueabihf/4.9.1/libgcc.a(_divdi3.o)
                0x000aa5ec                __divdi3
 .text          0x000aa788      0x11c /media/BBB/lib/gcc/arm-linux-gnueabihf/4.9.1/libgcc.a(_udivdi3.o)
                0x000aa788                __udivdi3
 .text          0x000aa8a4       0x48 /usr/lib/arm-linux-gnueabihf/libc_nonshared.a(elf-init.oS)
                0x000aa8a4                __libc_csu_init
                0x000aa8e8                __libc_csu_fini
 *(.gnu.warning)
 *(.glue_7t)
 .glue_7t       0x00000000        0x0 linker stubs
 *(.glue_7)
 .glue_7        0x00000000        0x0 linker stubs
 *(.vfp11_veneer)
 .vfp11_veneer  0x00000000        0x0 linker stubs
 *(.v4_bx)
 .v4_bx         0x00000000        0x0 linker stubs

.fini           0x000aa8ec        0x6
 *(.fini)
 .fini          0x000aa8ec        0x4 /usr/lib/arm-linux-gnueabihf/crti.o
                0x000aa8ec                _fini
 .fini          0x000aa8f0        0x2 /usr/lib/arm-linux-gnueabihf/crtn.o
                0x000aa8f2                PROVIDE (__etext, .)
                0x000aa8f2                PROVIDE (_etext, .)
                0x000aa8f2                PROVIDE (etext, .)

.rodata         0x000aa8f4     0xa620
 *(.rodata .rodata.* .gnu.linkonce.r.*)
 .rodata.str1.4
                0x000aa8f4       0x47 platform/linux/emu.o
                                 0x4c (size before relaxing)
 *fill*         0x000aa93b        0x1 00
 .rodata        0x000aa93c       0xbc platform/common/plat_sdl.o
                0x000aa954                in_sdl_joy_map
                0x000aa974                in_sdl_key_map
                0x000aa99c                in_sdl_defbinds
 .rodata.str1.4
                0x000aa9f8        0xf platform/common/plat_sdl.o
                                 0x18 (size before relaxing)
 *fill*         0x000aaa07        0x1 00
 .rodata.str1.4
                0x000aaa08      0x1ba platform/libpicofe/plat_sdl.o
                                0x1bc (size before relaxing)
 *fill*         0x000aabc2        0x2 00
 .rodata        0x000aabc4      0x548 platform/libpicofe/in_sdl.o
 .rodata.str1.4
                0x000ab10c      0x290 platform/libpicofe/in_sdl.o
                                0x304 (size before relaxing)
 .rodata.str1.4
                0x000ab39c      0x16a platform/common/main.o
                                0x16c (size before relaxing)
 *fill*         0x000ab506        0x2 00
 .rodata        0x000ab508       0x30 platform/common/emu.o
 .rodata.str1.4
                0x000ab538      0x588 platform/common/emu.o
                                0x5b0 (size before relaxing)
 .rodata        0x000abac0      0x490 platform/common/menu_pico.o
 .rodata.str1.4
                0x000abf50      0xb58 platform/common/menu_pico.o
                                0xb8c (size before relaxing)
 .rodata.str1.4
                0x000acaa8      0x2eb platform/common/config_file.o
                                0x340 (size before relaxing)
 *fill*         0x000acd93        0x1 00
 .rodata.str1.4
                0x000acd94      0x1ab platform/libpicofe/input.o
                                0x1ac (size before relaxing)
 *fill*         0x000acf3f        0x1 00
 .rodata.str1.4
                0x000acf40      0x32f platform/libpicofe/readpng.o
                                0x338 (size before relaxing)
 *fill*         0x000ad26f        0x1 00
 .rodata.str1.4
                0x000ad270      0x11e platform/libpicofe/linux/plat.o
                                0x120 (size before relaxing)
 *fill*         0x000ad38e        0x2 00
 .rodata        0x000ad390       0x38 platform/libpicofe/sndout.o
 .rodata.str1.4
                0x000ad3c8       0x29 platform/libpicofe/sndout.o
                                 0x2c (size before relaxing)
 *fill*         0x000ad3f1        0x3 00
 .rodata.str1.4
                0x000ad3f4       0x13 platform/libpicofe/sndout_sdl.o
                                 0x14 (size before relaxing)
 *fill*         0x000ad407        0x1 00
 .rodata.str1.4
                0x000ad408       0x28 zlib/gzio.o
                                 0x30 (size before relaxing)
 .rodata.str1.4
                0x000ad430       0x54 zlib/inffast.o
 .rodata        0x000ad484      0x8a8 zlib/inflate.o
 .rodata.str1.4
                0x000add2c      0x16b zlib/inflate.o
                                0x1c0 (size before relaxing)
 *fill*         0x000ade97        0x1 00
 .rodata        0x000ade98      0x130 zlib/inftrees.o
                0x000adf98                inflate_copyright
 .rodata        0x000adfc8      0xa30 zlib/trees.o
                0x000adfc8                _length_code
                0x000ae1b0                _dist_code
 .rodata        0x000ae9f8       0xb0 zlib/deflate.o
                0x000aea70                deflate_copyright
 .rodata        0x000aeaa8     0x2000 zlib/crc32.o
 .rodata        0x000b0aa8       0x28 zlib/zutil.o
                0x000b0aa8                z_errmsg
 .rodata.str1.4
                0x000b0ad0       0x7d zlib/zutil.o
                                 0x8c (size before relaxing)
 .rodata.str1.4
                0x00000000        0x8 zlib/compress.o
 .rodata.str1.4
                0x00000000        0x8 zlib/uncompr.o
 *fill*         0x000b0b4d        0x3 00
 .rodata.str1.4
                0x000b0b50      0x3fa unzip/unzip.o
                                0x408 (size before relaxing)
 .rodata.str1.4
                0x00000000      0x104 unzip/unzip_stream.o
 *fill*         0x000b0f4a        0x2 00
 .rodata        0x000b0f4c       0x80 pico/pico.o
 .rodata.str1.4
                0x000b0fcc       0x2a pico/pico.o
                                 0x2c (size before relaxing)
 *fill*         0x000b0ff6        0x2 00
 .rodata        0x000b0ff8     0x128c pico/cart.o
 .rodata.str1.4
                0x000b2284      0x49d pico/cart.o
                                0x4d0 (size before relaxing)
 *fill*         0x000b2721        0x3 00
 .rodata.str1.4
                0x000b2724       0xad pico/memory.o
                                 0xb0 (size before relaxing)
 *fill*         0x000b27d1        0x3 00
 .rodata        0x000b27d4       0xf8 pico/state.o
 .rodata.str1.4
                0x000b28cc      0x6f1 pico/state.o
                                0x70c (size before relaxing)
 *fill*         0x000b2fbd        0x3 00
 .rodata.str1.4
                0x000b2fc0       0x51 pico/sek.o
                                 0x54 (size before relaxing)
 *fill*         0x000b3011        0x3 00
 .rodata.str1.4
                0x000b3014       0xfe pico/z80if.o
                                0x104 (size before relaxing)
 *fill*         0x000b3112        0x2 00
 .rodata        0x000b3114      0x400 pico/misc.o
                0x000b3114                hcounts_32
                0x000b3314                hcounts_40
 .rodata.str1.4
                0x000b3514        0x5 pico/patch.o
                                  0xc (size before relaxing)
 *fill*         0x000b3519        0x3 00
 .rodata.str1.4
                0x000b351c      0x53e pico/debug.o
                                0x554 (size before relaxing)
 *fill*         0x000b3a5a        0x2 00
 .rodata        0x000b3a5c        0x8 pico/media.o
 .rodata.str1.4
                0x000b3a64      0x13a pico/media.o
                                0x180 (size before relaxing)
 *fill*         0x000b3b9e        0x2 00
 .rodata.str1.4
                0x000b3ba0       0x4d pico/sms.o
                                 0x50 (size before relaxing)
 *fill*         0x000b3bed        0x3 00
 .rodata        0x000b3bf0       0x10 pico/cd/mcd.o
 .rodata        0x000b3c00       0x70 pico/cd/memory.o
 .rodata        0x000b3c70      0x29c pico/cd/cdd.o
 .rodata.str1.4
                0x000b3f0c       0x83 pico/cd/cdd.o
                                 0x94 (size before relaxing)
 *fill*         0x000b3f8f        0x1 00
 .rodata        0x000b3f90       0x28 pico/cd/cd_image.o
 .rodata.str1.4
                0x000b3fb8      0x16a pico/cd/cd_image.o
                                0x170 (size before relaxing)
 *fill*         0x000b4122        0x2 00
 .rodata.str1.4
                0x000b4124      0x1f4 pico/cd/cue.o
                                0x214 (size before relaxing)
 .rodata        0x000b4318        0xc pico/32x/32x.o
 .rodata.str1.4
                0x000b4324       0x57 pico/32x/32x.o
                                 0x58 (size before relaxing)
 *fill*         0x000b437b        0x1 00
 .rodata        0x000b437c       0xb8 pico/32x/memory.o
 .rodata.str1.4
                0x000b4434       0x9b pico/32x/memory.o
                                 0x9c (size before relaxing)
 *fill*         0x000b44cf        0x1 00
 .rodata        0x000b44d0       0x30 pico/32x/draw.o
 .rodata        0x000b4500       0x20 pico/pico/pico.o
 .rodata.str1.4
                0x000b4520       0x19 pico/pico/pico.o
                                 0x1c (size before relaxing)
 *fill*         0x000b4539        0x3 00
 .rodata        0x000b453c       0x60 pico/pico/xpcm.o
 .rodata.str1.4
                0x000b459c      0x1c1 pico/carthw/carthw.o
                                0x1d4 (size before relaxing)
 *fill*         0x000b475d        0x3 00
 .rodata.str1.4
                0x000b4760       0x35 pico/carthw/svp/svp.o
                                 0x38 (size before relaxing)
 *fill*         0x000b4795        0x3 00
 .rodata        0x000b4798       0x80 pico/carthw/svp/ssp16.o
 .rodata        0x000b4818       0xe8 pico/carthw/svp/compiler.o
 .rodata.str1.4
                0x000b4900       0x42 pico/carthw/svp/compiler.o
                                 0x44 (size before relaxing)
 *fill*         0x000b4942        0x2 00
 .rodata        0x000b4944      0x3e0 pico/sound/ym2612.o
 .rodata.str1.4
                0x000b4d24       0x7d cpu/drc/cmn.o
                                 0x88 (size before relaxing)
 *fill*         0x000b4da1        0x3 00
 .rodata        0x000b4da4       0x9c cpu/sh2/compiler.o
 .rodata.str1.4
                0x000b4e40       0xb3 cpu/sh2/compiler.o
                                 0xd8 (size before relaxing)
 *fill*         0x000b4ef3        0x1 00
 .rodata.str1.4
                0x000b4ef4       0x20 cpu/sh2/mame/sh2pico.o

.rodata1
 *(.rodata1)

.ARM.extab
 *(.ARM.extab* .gnu.linkonce.armextab.*)
                0x000b4f14                PROVIDE (__exidx_start, .)

.ARM.exidx      0x000b4f14        0x8
 *(.ARM.exidx* .gnu.linkonce.armexidx.*)
 .ARM.exidx     0x000b4f14        0x8 /usr/lib/arm-linux-gnueabihf/crt1.o
 .ARM.exidx     0x000b4f1c        0x0 /media/BBB/lib/gcc/arm-linux-gnueabihf/4.9.1/libgcc.a(_divdi3.o)
                                  0x8 (size before relaxing)
 .ARM.exidx     0x000b4f1c        0x0 /media/BBB/lib/gcc/arm-linux-gnueabihf/4.9.1/libgcc.a(_udivdi3.o)
                                  0x8 (size before relaxing)
                0x000b4f1c                PROVIDE (__exidx_end, .)

.eh_frame_hdr   0x000b4f1c        0x0
 *(.eh_frame_hdr)
 .eh_frame_hdr  0x00000000        0x0 /usr/lib/arm-linux-gnueabihf/crtn.o

.eh_frame       0x000b4f1c        0x4
 *(.eh_frame)
 .eh_frame      0x000b4f1c        0x4 /media/BBB/lib/gcc/arm-linux-gnueabihf/4.9.1/crtend.o

.gcc_except_table
 *(.gcc_except_table .gcc_except_table.*)

.exception_ranges
 *(.exception_ranges .exception_ranges*)
                0x000b4f20                . = (ALIGN (0x8000) - ((0x8000 - .) & 0x7fff))
                0x000bcf20                . = DATA_SEGMENT_ALIGN (0x8000, 0x1000)

.eh_frame
 *(.eh_frame)

.gcc_except_table
 *(.gcc_except_table .gcc_except_table.*)

.exception_ranges
 *(.exception_ranges .exception_ranges*)

.tdata
 *(.tdata .tdata.* .gnu.linkonce.td.*)

.tbss
 *(.tbss .tbss.* .gnu.linkonce.tb.*)
 *(.tcommon)

.preinit_array  0x000bcf20        0x0
                0x000bcf20                PROVIDE (__preinit_array_start, .)
 *(.preinit_array)
                0x000bcf20                PROVIDE (__preinit_array_end, .)

.init_array     0x000bcf20        0x4
                0x000bcf20                PROVIDE (__init_array_start, .)
 *(SORT(.init_array.*) SORT(.ctors.*))
 *(.init_array)
 .init_array    0x000bcf20        0x4 /media/BBB/lib/gcc/arm-linux-gnueabihf/4.9.1/crtbegin.o
 *(EXCLUDE_FILE(*crtend?.o *crtend.o *crtbegin?.o *crtbegin.o) .ctors)
                0x000bcf24                PROVIDE (__init_array_end, .)

.fini_array     0x000bcf24        0x4
                0x000bcf24                PROVIDE (__fini_array_start, .)
 *(SORT(.fini_array.*) SORT(.dtors.*))
 *(.fini_array)
 .fini_array    0x000bcf24        0x4 /media/BBB/lib/gcc/arm-linux-gnueabihf/4.9.1/crtbegin.o
 *(EXCLUDE_FILE(*crtend?.o *crtend.o *crtbegin?.o *crtbegin.o) .dtors)
                0x000bcf28                PROVIDE (__fini_array_end, .)

.ctors
 *crtbegin.o(.ctors)
 *crtbegin?.o(.ctors)
 *(EXCLUDE_FILE(*crtend?.o *crtend.o) .ctors)
 *(SORT(.ctors.*))
 *(.ctors)

.dtors
 *crtbegin.o(.dtors)
 *crtbegin?.o(.dtors)
 *(EXCLUDE_FILE(*crtend?.o *crtend.o) .dtors)
 *(SORT(.dtors.*))
 *(.dtors)

.jcr            0x000bcf28        0x4
 *(.jcr)
 .jcr           0x000bcf28        0x0 /media/BBB/lib/gcc/arm-linux-gnueabihf/4.9.1/crtbegin.o
 .jcr           0x000bcf28        0x4 /media/BBB/lib/gcc/arm-linux-gnueabihf/4.9.1/crtend.o

.data.rel.ro
 *(.data.rel.ro.local* .gnu.linkonce.d.rel.ro.local.*)
 *(.data.rel.ro* .gnu.linkonce.d.rel.ro.*)

.dynamic        0x000bcf2c      0x110
 *(.dynamic)
 .dynamic       0x000bcf2c      0x110 /usr/lib/arm-linux-gnueabihf/crt1.o
                0x000bcf2c                _DYNAMIC
                0x000bd03c                . = DATA_SEGMENT_RELRO_END (., 0x0)

.got            0x000bd03c      0x1fc
 *(.got.plt)
 .got.plt       0x000bd03c      0x1f8 /usr/lib/arm-linux-gnueabihf/crt1.o
                0x000bd03c                _GLOBAL_OFFSET_TABLE_
 *(.igot.plt)
 .igot.plt      0x00000000        0x0 /usr/lib/arm-linux-gnueabihf/crt1.o
 *(.got)
 .got           0x000bd234        0x4 /usr/lib/arm-linux-gnueabihf/crt1.o
 *(.igot)

.data           0x000bd240    0x43ac8
                0x000bd240                PROVIDE (__data_start, .)
 *(.data .data.* .gnu.linkonce.d.*)
 .data          0x000bd240       0x20 platform/linux/emu.o
                0x000bd240                renderer_names
                0x000bd250                renderer_names32x
 .data          0x000bd260        0x4 platform/libpicofe/plat_sdl.o
 .data          0x000bd264        0x4 platform/common/main.o
 .data          0x000bd268       0x20 platform/common/emu.o
                0x000bd268                engineState
                0x000bd26c                PicoConfigFile
                0x000bd270                g_screen_width
                0x000bd274                g_screen_height
                0x000bd278                pico_pen_y
                0x000bd27c                pico_pen_x
 .data          0x000bd288     0x10c0 platform/common/menu_pico.o
                0x000bdef8                me_ctrl_actions
                0x000bdf78                emuctrl_actions
                0x000be338                indev_names
 .data          0x000be348      0xc00 platform/libpicofe/fonts.o
                0x000be348                fontdata8x8
                0x000be748                fontdata6x8
 .data          0x000bef48       0x20 platform/common/mp3.o
                0x000bef48                mpeg1_l3_bitrates
 .data          0x000bef68       0x3c zlib/trees.o
 .data          0x000befa4        0x4 unzip/unzip.o
 *fill*         0x000befa8        0x8 00
 .data          0x000befb0       0x10 pico/sound/mix_arm.o
                0x000befb0                mix_32_to_16l_level
 .data          0x000befc0        0xc pico/memory.o
 .data          0x000befcc        0x8 pico/draw2.o
                0x000befcc                PicoCramHigh
                0x000befd0                PicoDraw2FB
 .data          0x000befd4       0x14 pico/draw.o
                0x000befd4                HighCol
                0x000befd8                DrawLineDest
                0x000befe0                DrawLineDestBase
                0x000befe4                PicoDrawMask
 .data          0x000befe8        0x4 pico/eeprom.o
 .data          0x000befec       0x68 pico/patch.o
 .data          0x000bf054       0x40 pico/cd/misc.o
                0x000bf054                formatted_bram
 .data          0x000bf094        0x4 pico/pico/pico.o
 .data          0x000bf098        0x4 pico/pico/xpcm.o
 .data          0x000bf09c       0x5c pico/carthw/carthw.o
 .data          0x000bf0f8       0x34 pico/carthw/svp/svp.o
                0x000bf0f8                PicoSVPCycles
 .data          0x000bf12c        0x4 pico/sound/sound.o
                0x000bf12c                PsndMix_32_to_16l
 .data          0x000bf130    0x40000 cpu/cyclone/Cyclone.o
                0x000bf130                CycloneJumpTab
 .data          0x000ff130       0xa4 cpu/cyclone/tools/idle.o
 *fill*         0x000ff1d4        0xc 00
 .data          0x000ff1e0     0x1b10 cpu/DrZ80/drz80.o
                0x000ff1e0                DrZ80Ver
 .data          0x00100cf0       0x18 cpu/sh2/compiler.o

.tm_clone_table
                0x00100d08        0x0
 .tm_clone_table
                0x00100d08        0x0 /media/BBB/lib/gcc/arm-linux-gnueabihf/4.9.1/crtbegin.o
 .tm_clone_table
                0x00100d08        0x0 /media/BBB/lib/gcc/arm-linux-gnueabihf/4.9.1/crtend.o

.data1
 *(.data1)
                0x00100d08                _edata = .
                0x00100d08                PROVIDE (edata, .)
                0x00100d08                __bss_start = .
                0x00100d08                __bss_start__ = .

.bss            0x00101000   0x2b9000
 *(.dynbss)
 .dynbss        0x00101000        0xc /usr/lib/arm-linux-gnueabihf/crt1.o
                0x00101000                stdout@@GLIBC_2.4
                0x00101008                stderr@@GLIBC_2.4
 *(.bss .bss.* .gnu.linkonce.b.*)
 .bss           0x0010100c        0x1 /media/BBB/lib/gcc/arm-linux-gnueabihf/4.9.1/crtbegin.o
 *fill*         0x0010100d        0x3 00
 .bss           0x00101010      0x204 platform/common/plat_sdl.o
 .bss           0x00101214       0x50 platform/libpicofe/plat_sdl.o
 .bss           0x00101264        0x4 platform/libpicofe/in_sdl.o
 .bss           0x00101268     0x10f8 platform/common/emu.o
                0x00101270                config_slot
                0x00101274                config_slot_current
                0x00101570                state_slot
                0x00101574                movie_data
                0x0010158c                reset_timing
 .bss           0x00102360      0x208 platform/common/menu_pico.o
                0x001023bc                menu_error_msg
 .bss           0x00102568      0x174 platform/libpicofe/input.o
 .bss           0x001026dc        0x4 platform/libpicofe/linux/plat.o
 .bss           0x001026e0    0x1000c platform/libpicofe/sndout_sdl.o
 .bss           0x001126ec       0x14 platform/common/mp3.o
 .bss           0x00112700       0x10 pico/pico.o
                0x00112700                PicoResetHook
                0x00112704                PicoLineHook
                0x00112708                PicoMessage
                0x0011270c                PicoWriteSound
 .bss           0x00112710        0xc pico/cart.o
                0x00112714                PicoCartLoadProgressCB
                0x00112718                PicoCDLoadProgressCB
 .bss           0x0011271c       0x18 pico/state.o
 .bss           0x00112734       0x10 pico/sek.o
 .bss           0x00112744        0x4 pico/z80if.o
 .bss           0x00112748        0x4 pico/videoport.o
                0x00112748                PicoDmaHook
 .bss           0x0011274c    0x16d3c pico/draw2.o
                0x0011274c                PicoPrepareCram
 .bss           0x00129488      0x7b8 pico/draw.o
                0x00129494                PicoScanBegin
                0x001295ec                PicoScanEnd
 .bss           0x00129c40        0xc pico/mode4.o
 .bss           0x00129c4c        0x8 pico/patch.o
                0x00129c4c                PicoPatches
                0x00129c50                PicoPatchCount
 .bss           0x00129c54     0x2000 pico/debug.o
 .bss           0x0012bc54        0x4 pico/sms.o
 .bss           0x0012bc58       0x18 pico/cd/mcd.o
                0x0012bc68                PicoMCDcloseTray
                0x0012bc6c                PicoMCDopenTray
 .bss           0x0012bc70     0x4950 pico/cd/cdc.o
 .bss           0x001305c0      0x718 pico/cd/gfx.o
 .bss           0x00130cd8        0x4 pico/32x/32x.o
 .bss           0x00130cdc      0xc0c pico/32x/memory.o
 .bss           0x001318e8       0x10 pico/32x/sh2soc.o
 .bss           0x001318f8       0x18 pico/32x/pwm.o
 .bss           0x00131910        0x8 pico/pico/pico.o
 .bss           0x00131918        0xc pico/pico/xpcm.o
 .bss           0x00131924       0x28 pico/carthw/carthw.o
 .bss           0x0013194c        0xc pico/carthw/svp/svp.o
                0x00131954                svp
 .bss           0x00131958        0xc pico/carthw/svp/ssp16.o
                0x00131958                ssp
 .bss           0x00131964       0x84 pico/carthw/svp/compiler.o
 .bss           0x001319e8     0x1e34 pico/sound/sound.o
                0x001319e8                PsndLen
                0x00131c64                PsndLen_exc_add
                0x00133808                PsndLen_exc_cnt
                0x0013380c                PsndOut
                0x00133810                PsndRate
                0x00133814                PsndDacLine
 .bss           0x0013381c       0xb8 pico/sound/sn76496.o
 .bss           0x001338d4    0x2425c pico/sound/ym2612.o
 .bss           0x00157b30        0x4 cpu/drc/cmn.o
 .bss           0x00157b34      0x908 cpu/sh2/compiler.o
 *(COMMON)
 COMMON         0x0015843c        0x4 platform/linux/emu.o
                0x0015843c                Pico32xMem
 COMMON         0x00158440       0x14 platform/libpicofe/plat_sdl.o
                0x00158440                plat_sdl_resize_cb
                0x00158444                plat_sdl_gl_active
                0x00158448                plat_sdl_screen
                0x0015844c                plat_sdl_overlay
                0x00158450                plat_sdl_quit_cb
 COMMON         0x00158454       0x34 platform/libpicofe/plat_dummy.o
                0x00158454                plat_target
 COMMON         0x00158488        0x4 platform/common/main.o
                0x00158488                g_argv
 COMMON         0x0015848c      0x2e8 platform/common/emu.o
                0x0015848c                rom_fname_reload
                0x00158490                currentConfig
                0x001584fc                defaultConfig
                0x00158568                pico_inp_mode
                0x0015856c                g_screen_ptr
                0x00158570                rom_fname_loaded
                0x00158770                flip_after_sync
 COMMON         0x00158774       0x18 platform/common/menu_pico.o
                0x00158774                g_menuscreen_h
                0x00158778                g_menubg_src_ptr
                0x0015877c                g_autostateld_opt
                0x00158780                g_menuscreen_ptr
                0x00158784                g_menuscreen_w
                0x00158788                g_menubg_ptr
 COMMON         0x0015878c       0x1c platform/libpicofe/sndout.o
                0x0015878c                sndout_current
 COMMON         0x001587a8    0x22324 pico/pico.o
                0x001587a8                last_z80_sync
                0x001587ac                PicoAutoRgnOrder
                0x001587b0                PicoSkipFrame
                0x001587b4                SRam
                0x001587cc                z80_scanline
                0x001587d0                PicoQuirks
                0x001587d4                PicoAHW
                0x001587d8                scanlines_total
                0x001587dc                PicoOpt
                0x001587e0                z80_cycle_aim
                0x001587e4                z80_cycle_cnt
                0x001587e8                Pico
                0x0017aab0                PicoPadInt
                0x0017aab8                PicoPad
                0x0017aac0                z80_scanline_cycles
                0x0017aac4                PicoRegionOverride
                0x0017aac8                emustatus
 COMMON         0x0017aacc        0xc pico/cart.o
                0x0017aacc                PicoCartMemSetup
                0x0017aad0                PicoGameLoaded
                0x0017aad4                PicoCartUnloadHook
 COMMON         0x0017aad8     0x1000 pico/memory.o
                0x0017aad8                m68k_read16_map
                0x0017aed8                m68k_write16_map
                0x0017b2d8                m68k_write8_map
                0x0017b6d8                m68k_read8_map
 COMMON         0x0017bad8        0xc pico/state.o
                0x0017bad8                carthw_chunks
                0x0017badc                PicoStateProgressCB
                0x0017bae0                PicoLoadStateHook
 COMMON         0x0017bae4       0xb8 pico/sek.o
                0x0017bae4                SekCycleCnt
                0x0017bae8                PicoCpuCM68k
                0x0017bb98                SekCycleAim
 COMMON         0x0017bb9c       0xbc pico/z80if.o
                0x0017bb9c                z80_write_map
                0x0017bbbc                z80_read_map
                0x0017bbdc                drZ80
 COMMON         0x0017bc58        0x4 pico/videoport.o
                0x0017bc58                line_base_cycles
 COMMON         0x0017bc5c     0x2298 pico/draw.o
                0x0017bc5c                DrawScanline
                0x0017bc60                HighLnSpr
                0x0017da60                DrawLineDestIncrement
                0x0017da64                rendstatus_old
                0x0017da68                HighPreSpr
                0x0017dcec                rendlines
                0x0017dcf0                rendstatus
                0x0017dcf4                HighPal
 COMMON         0x0017def4      0x100 pico/media.o
                0x0017def4                media_id_header
 COMMON         0x0017dff4       0x10 pico/cd/mcd.o
                0x0017dff4                pcd_event_times
 COMMON         0x0017e004     0x1000 pico/cd/memory.o
                0x0017e004                s68k_read16_map
                0x0017e404                s68k_read8_map
                0x0017e804                s68k_write16_map
                0x0017ec04                s68k_write8_map
 COMMON         0x0017f004       0xb8 pico/cd/sek.o
                0x0017f004                SekCycleCntS68k
                0x0017f008                SekCycleAimS68k
                0x0017f00c                PicoCpuCS68k
 COMMON         0x0017f0bc      0x66c pico/cd/cdd.o
                0x0017f0bc                cdd
 COMMON         0x0017f728     0x2684 pico/32x/32x.o
                0x0017f728                sh2s
                0x00181ce0                p32x_event_times
                0x00181cec                Pico32x
 COMMON         0x00181dac        0xc pico/32x/memory.o
                0x00181dac                p32x_bios_s
                0x00181db0                p32x_bios_m
                0x00181db4                p32x_bios_g
 COMMON         0x00181db8        0xc pico/32x/draw.o
                0x00181db8                Pico32xDrawMode
                0x00181dbc                PicoScan32xBegin
                0x00181dc0                PicoScan32xEnd
 COMMON         0x00181dc4      0x208 pico/pico/pico.o
                0x00181dc4                PicoPicohw
 COMMON         0x00181fcc     0x1210 pico/sound/sound.o
                0x00181fcc                timer_a_step
                0x00181fd0                timer_a_next_oflow
                0x00181fd4                timer_b_next_oflow
                0x00181fd8                timer_b_step
                0x00181fdc                cdda_out_buffer
 COMMON         0x001831dc        0x4 pico/sound/sn76496.o
                0x001831dc                sn76496_regs
 COMMON         0x001831e0    0x365e0 pico/sound/ym2612.o
                0x001831e0                ym_tl_tab
                0x001b71e0                ym2612
                0x001b7dc0                ym_tl_tab2
 *fill*         0x001b97c0      0x840 00
 COMMON         0x001ba000   0x200000 cpu/drc/cmn.o
                0x001ba000                tcache
                0x003ba000                . = ALIGN ((. != 0x0)?0x4:0x1)
                0x003ba000                _bss_end__ = .
                0x003ba000                __bss_end__ = .
                0x003ba000                . = ALIGN (0x4)
                0x003ba000                . = ALIGN (0x4)
                0x003ba000                __end__ = .
                0x003ba000                _end = .
                0x003ba000                PROVIDE (end, .)
                0x003ba000                . = DATA_SEGMENT_END (.)

.stab
 *(.stab)

.stabstr
 *(.stabstr)

.stab.excl
 *(.stab.excl)

.stab.exclstr
 *(.stab.exclstr)

.stab.index
 *(.stab.index)

.stab.indexstr
 *(.stab.indexstr)

.comment        0x00000000       0x2e
 *(.comment)
 .comment       0x00000000       0x11 /media/BBB/lib/gcc/arm-linux-gnueabihf/4.9.1/crtbegin.o
                                 0x12 (size before relaxing)
 .comment       0x00000000       0x12 platform/linux/emu.o
 .comment       0x00000000       0x12 platform/common/plat_sdl.o
 .comment       0x00000000       0x12 platform/libpicofe/plat_sdl.o
 .comment       0x00000000       0x12 platform/libpicofe/in_sdl.o
 .comment       0x00000000       0x12 platform/libpicofe/plat_dummy.o
 .comment       0x00000000       0x12 platform/common/main.o
 .comment       0x00000000       0x12 platform/common/emu.o
 .comment       0x00000000       0x12 platform/common/menu_pico.o
 .comment       0x00000000       0x12 platform/common/config_file.o
 .comment       0x00000000       0x12 platform/libpicofe/input.o
 .comment       0x00000000       0x12 platform/libpicofe/readpng.o
 .comment       0x00000000       0x12 platform/libpicofe/fonts.o
 .comment       0x00000000       0x12 platform/libpicofe/linux/plat.o
 .comment       0x00000000       0x12 platform/libpicofe/sndout.o
 .comment       0x00000000       0x12 platform/libpicofe/sndout_sdl.o
 .comment       0x00000000       0x12 platform/common/mp3.o
 .comment       0x00000000       0x12 platform/common/mp3_dummy.o
 .comment       0x00000000       0x12 zlib/gzio.o
 .comment       0x00000000       0x12 zlib/inffast.o
 .comment       0x00000000       0x12 zlib/inflate.o
 .comment       0x00000000       0x12 zlib/inftrees.o
 .comment       0x00000000       0x12 zlib/trees.o
 .comment       0x00000000       0x12 zlib/deflate.o
 .comment       0x00000000       0x12 zlib/crc32.o
 .comment       0x00000000       0x12 zlib/adler32.o
 .comment       0x00000000       0x12 zlib/zutil.o
 .comment       0x00000000       0x12 zlib/compress.o
 .comment       0x00000000       0x12 zlib/uncompr.o
 .comment       0x00000000       0x12 unzip/unzip.o
 .comment       0x00000000       0x12 unzip/unzip_stream.o
 .comment       0x00000000       0x12 pico/pico.o
 .comment       0x00000000       0x12 pico/cart.o
 .comment       0x00000000       0x12 pico/memory.o
 .comment       0x00000000       0x12 pico/state.o
 .comment       0x00000000       0x12 pico/sek.o
 .comment       0x00000000       0x12 pico/z80if.o
 .comment       0x00000000       0x12 pico/videoport.o
 .comment       0x00000000       0x12 pico/draw2.o
 .comment       0x00000000       0x12 pico/draw.o
 .comment       0x00000000       0x12 pico/mode4.o
 .comment       0x00000000       0x12 pico/misc.o
 .comment       0x00000000       0x12 pico/eeprom.o
 .comment       0x00000000       0x12 pico/patch.o
 .comment       0x00000000       0x12 pico/debug.o
 .comment       0x00000000       0x12 pico/media.o
 .comment       0x00000000       0x12 pico/sms.o
 .comment       0x00000000       0x12 pico/cd/mcd.o
 .comment       0x00000000       0x12 pico/cd/memory.o
 .comment       0x00000000       0x12 pico/cd/sek.o
 .comment       0x00000000       0x12 pico/cd/cdc.o
 .comment       0x00000000       0x12 pico/cd/cdd.o
 .comment       0x00000000       0x12 pico/cd/cd_image.o
 .comment       0x00000000       0x12 pico/cd/cue.o
 .comment       0x00000000       0x12 pico/cd/gfx.o
 .comment       0x00000000       0x12 pico/cd/gfx_dma.o
 .comment       0x00000000       0x12 pico/cd/misc.o
 .comment       0x00000000       0x12 pico/cd/pcm.o
 .comment       0x00000000       0x12 pico/32x/32x.o
 .comment       0x00000000       0x12 pico/32x/memory.o
 .comment       0x00000000       0x12 pico/32x/draw.o
 .comment       0x00000000       0x12 pico/32x/sh2soc.o
 .comment       0x00000000       0x12 pico/32x/pwm.o
 .comment       0x00000000       0x12 pico/pico/pico.o
 .comment       0x00000000       0x12 pico/pico/memory.o
 .comment       0x00000000       0x12 pico/pico/xpcm.o
 .comment       0x00000000       0x12 pico/carthw/carthw.o
 .comment       0x00000000       0x12 pico/carthw/svp/svp.o
 .comment       0x00000000       0x12 pico/carthw/svp/memory.o
 .comment       0x00000000       0x12 pico/carthw/svp/ssp16.o
 .comment       0x00000000       0x12 pico/carthw/svp/compiler.o
 .comment       0x00000000       0x12 pico/sound/sound.o
 .comment       0x00000000       0x12 pico/sound/sn76496.o
 .comment       0x00000000       0x12 pico/sound/ym2612.o
 .comment       0x00000000       0x12 cpu/drc/cmn.o
 .comment       0x00000000       0x12 cpu/sh2/sh2.o
 .comment       0x00000000       0x12 cpu/sh2/compiler.o
 .comment       0x00000000       0x12 cpu/sh2/mame/sh2pico.o
 .comment       0x00000000       0x12 /media/BBB/lib/gcc/arm-linux-gnueabihf/4.9.1/libgcc.a(bpabi.o)
 .comment       0x00000000       0x12 /media/BBB/lib/gcc/arm-linux-gnueabihf/4.9.1/libgcc.a(_divdi3.o)
 .comment       0x00000000       0x12 /media/BBB/lib/gcc/arm-linux-gnueabihf/4.9.1/libgcc.a(_udivdi3.o)
 .comment       0x00000011       0x1d /usr/lib/arm-linux-gnueabihf/libc_nonshared.a(elf-init.oS)
                                 0x1e (size before relaxing)
 .comment       0x00000000       0x12 /media/BBB/lib/gcc/arm-linux-gnueabihf/4.9.1/crtend.o

.ARM.attributes
                0x00000000       0x33
 .ARM.attributes
                0x00000000       0x33 /usr/lib/arm-linux-gnueabihf/crt1.o
 .ARM.attributes
                0x00000033       0x35 /usr/lib/arm-linux-gnueabihf/crti.o
 .ARM.attributes
                0x00000068       0x33 /media/BBB/lib/gcc/arm-linux-gnueabihf/4.9.1/crtbegin.o
 .ARM.attributes
                0x0000009b       0x33 platform/linux/emu.o
 .ARM.attributes
                0x000000ce       0x33 platform/common/plat_sdl.o
 .ARM.attributes
                0x00000101       0x33 platform/libpicofe/plat_sdl.o
 .ARM.attributes
                0x00000134       0x33 platform/libpicofe/in_sdl.o
 .ARM.attributes
                0x00000167       0x33 platform/libpicofe/plat_dummy.o
 .ARM.attributes
                0x0000019a       0x33 platform/common/main.o
 .ARM.attributes
                0x000001cd       0x33 platform/common/emu.o
 .ARM.attributes
                0x00000200       0x33 platform/common/menu_pico.o
 .ARM.attributes
                0x00000233       0x33 platform/common/config_file.o
 .ARM.attributes
                0x00000266       0x33 platform/libpicofe/input.o
 .ARM.attributes
                0x00000299       0x33 platform/libpicofe/readpng.o
 .ARM.attributes
                0x000002cc       0x33 platform/libpicofe/fonts.o
 .ARM.attributes
                0x000002ff       0x33 platform/libpicofe/linux/plat.o
 .ARM.attributes
                0x00000332       0x33 platform/libpicofe/sndout.o
 .ARM.attributes
                0x00000365       0x33 platform/libpicofe/sndout_sdl.o
 .ARM.attributes
                0x00000398       0x21 platform/libpicofe/arm_linux.o
 .ARM.attributes
                0x000003b9       0x33 platform/common/mp3.o
 .ARM.attributes
                0x000003ec       0x33 platform/common/mp3_dummy.o
 .ARM.attributes
                0x0000041f       0x33 zlib/gzio.o
 .ARM.attributes
                0x00000452       0x33 zlib/inffast.o
 .ARM.attributes
                0x00000485       0x33 zlib/inflate.o
 .ARM.attributes
                0x000004b8       0x33 zlib/inftrees.o
 .ARM.attributes
                0x000004eb       0x33 zlib/trees.o
 .ARM.attributes
                0x0000051e       0x33 zlib/deflate.o
 .ARM.attributes
                0x00000551       0x33 zlib/crc32.o
 .ARM.attributes
                0x00000584       0x33 zlib/adler32.o
 .ARM.attributes
                0x000005b7       0x33 zlib/zutil.o
 .ARM.attributes
                0x000005ea       0x33 zlib/compress.o
 .ARM.attributes
                0x0000061d       0x33 zlib/uncompr.o
 .ARM.attributes
                0x00000650       0x33 unzip/unzip.o
 .ARM.attributes
                0x00000683       0x33 unzip/unzip_stream.o
 .ARM.attributes
                0x000006b6       0x21 pico/draw_arm.o
 .ARM.attributes
                0x000006d7       0x21 pico/draw2_arm.o
 .ARM.attributes
                0x000006f8       0x21 pico/memory_arm.o
 .ARM.attributes
                0x00000719       0x21 pico/sound/ym2612_arm.o
 .ARM.attributes
                0x0000073a       0x21 pico/misc_arm.o
 .ARM.attributes
                0x0000075b       0x21 pico/cd/misc_arm.o
 .ARM.attributes
                0x0000077c       0x21 pico/cd/memory_arm.o
 .ARM.attributes
                0x0000079d       0x21 pico/sound/mix_arm.o
 .ARM.attributes
                0x000007be       0x33 pico/pico.o
 .ARM.attributes
                0x000007f1       0x33 pico/cart.o
 .ARM.attributes
                0x00000824       0x33 pico/memory.o
 .ARM.attributes
                0x00000857       0x33 pico/state.o
 .ARM.attributes
                0x0000088a       0x33 pico/sek.o
 .ARM.attributes
                0x000008bd       0x33 pico/z80if.o
 .ARM.attributes
                0x000008f0       0x33 pico/videoport.o
 .ARM.attributes
                0x00000923       0x33 pico/draw2.o
 .ARM.attributes
                0x00000956       0x33 pico/draw.o
 .ARM.attributes
                0x00000989       0x33 pico/mode4.o
 .ARM.attributes
                0x000009bc       0x33 pico/misc.o
 .ARM.attributes
                0x000009ef       0x33 pico/eeprom.o
 .ARM.attributes
                0x00000a22       0x33 pico/patch.o
 .ARM.attributes
                0x00000a55       0x33 pico/debug.o
 .ARM.attributes
                0x00000a88       0x33 pico/media.o
 .ARM.attributes
                0x00000abb       0x33 pico/sms.o
 .ARM.attributes
                0x00000aee       0x33 pico/cd/mcd.o
 .ARM.attributes
                0x00000b21       0x33 pico/cd/memory.o
 .ARM.attributes
                0x00000b54       0x33 pico/cd/sek.o
 .ARM.attributes
                0x00000b87       0x33 pico/cd/cdc.o
 .ARM.attributes
                0x00000bba       0x33 pico/cd/cdd.o
 .ARM.attributes
                0x00000bed       0x33 pico/cd/cd_image.o
 .ARM.attributes
                0x00000c20       0x33 pico/cd/cue.o
 .ARM.attributes
                0x00000c53       0x33 pico/cd/gfx.o
 .ARM.attributes
                0x00000c86       0x33 pico/cd/gfx_dma.o
 .ARM.attributes
                0x00000cb9       0x33 pico/cd/misc.o
 .ARM.attributes
                0x00000cec       0x33 pico/cd/pcm.o
 .ARM.attributes
                0x00000d1f       0x33 pico/32x/32x.o
 .ARM.attributes
                0x00000d52       0x33 pico/32x/memory.o
 .ARM.attributes
                0x00000d85       0x33 pico/32x/draw.o
 .ARM.attributes
                0x00000db8       0x33 pico/32x/sh2soc.o
 .ARM.attributes
                0x00000deb       0x33 pico/32x/pwm.o
 .ARM.attributes
                0x00000e1e       0x33 pico/pico/pico.o
 .ARM.attributes
                0x00000e51       0x33 pico/pico/memory.o
 .ARM.attributes
                0x00000e84       0x33 pico/pico/xpcm.o
 .ARM.attributes
                0x00000eb7       0x33 pico/carthw/carthw.o
 .ARM.attributes
                0x00000eea       0x33 pico/carthw/svp/svp.o
 .ARM.attributes
                0x00000f1d       0x33 pico/carthw/svp/memory.o
 .ARM.attributes
                0x00000f50       0x33 pico/carthw/svp/ssp16.o
 .ARM.attributes
                0x00000f83       0x21 pico/carthw/svp/stub_arm.o
 .ARM.attributes
                0x00000fa4       0x33 pico/carthw/svp/compiler.o
 .ARM.attributes
                0x00000fd7       0x33 pico/sound/sound.o
 .ARM.attributes
                0x0000100a       0x33 pico/sound/sn76496.o
 .ARM.attributes
                0x0000103d       0x33 pico/sound/ym2612.o
 .ARM.attributes
                0x00001070       0x21 pico/m68kif_cyclone.o
 .ARM.attributes
                0x00001091       0x21 cpu/cyclone/Cyclone.o
 .ARM.attributes
                0x000010b2       0x21 cpu/cyclone/tools/idle.o
 .ARM.attributes
                0x000010d3       0x21 cpu/DrZ80/drz80.o
 .ARM.attributes
                0x000010f4       0x33 cpu/drc/cmn.o
 .ARM.attributes
                0x00001127       0x33 cpu/sh2/sh2.o
 .ARM.attributes
                0x0000115a       0x33 cpu/sh2/compiler.o
 .ARM.attributes
                0x0000118d       0x33 cpu/sh2/mame/sh2pico.o
 .ARM.attributes
                0x000011c0       0x23 /media/BBB/lib/gcc/arm-linux-gnueabihf/4.9.1/libgcc.a(_divsi3.o)
 .ARM.attributes
                0x000011e3       0x23 /media/BBB/lib/gcc/arm-linux-gnueabihf/4.9.1/libgcc.a(_aeabi_ldivmod.o)
 .ARM.attributes
                0x00001206       0x23 /media/BBB/lib/gcc/arm-linux-gnueabihf/4.9.1/libgcc.a(_dvmd_lnx.o)
 .ARM.attributes
                0x00001229       0x33 /media/BBB/lib/gcc/arm-linux-gnueabihf/4.9.1/libgcc.a(bpabi.o)
 .ARM.attributes
                0x0000125c       0x33 /media/BBB/lib/gcc/arm-linux-gnueabihf/4.9.1/libgcc.a(_divdi3.o)
 .ARM.attributes
                0x0000128f       0x33 /media/BBB/lib/gcc/arm-linux-gnueabihf/4.9.1/libgcc.a(_udivdi3.o)
 .ARM.attributes
                0x000012c2       0x35 /usr/lib/arm-linux-gnueabihf/libc_nonshared.a(elf-init.oS)
 .ARM.attributes
                0x000012f7       0x33 /media/BBB/lib/gcc/arm-linux-gnueabihf/4.9.1/crtend.o
 .ARM.attributes
                0x0000132a       0x35 /usr/lib/arm-linux-gnueabihf/crtn.o

.debug
 *(.debug)

.line
 *(.line)

.debug_srcinfo
 *(.debug_srcinfo)

.debug_sfnames
 *(.debug_sfnames)

.debug_aranges  0x00000000     0x24f0
 *(.debug_aranges)
 .debug_aranges
                0x00000000       0x90 platform/linux/emu.o
 .debug_aranges
                0x00000090       0x80 platform/common/plat_sdl.o
 .debug_aranges
                0x00000110       0x40 platform/libpicofe/plat_sdl.o
 .debug_aranges
                0x00000150       0x58 platform/libpicofe/in_sdl.o
 .debug_aranges
                0x000001a8       0x30 platform/libpicofe/plat_dummy.o
 .debug_aranges
                0x000001d8       0x28 platform/common/main.o
 .debug_aranges
                0x00000200      0x148 platform/common/emu.o
 .debug_aranges
                0x00000348      0x1b8 platform/common/menu_pico.o
 .debug_aranges
                0x00000500       0x40 platform/common/config_file.o
 .debug_aranges
                0x00000540      0x128 platform/libpicofe/input.o
 .debug_aranges
                0x00000668       0x28 platform/libpicofe/readpng.o
 .debug_aranges
                0x00000690       0x30 platform/libpicofe/fonts.o
 .debug_aranges
                0x000006c0       0x78 platform/libpicofe/linux/plat.o
 .debug_aranges
                0x00000738       0x50 platform/libpicofe/sndout.o
 .debug_aranges
                0x00000788       0x50 platform/libpicofe/sndout_sdl.o
 .debug_aranges
                0x000007d8       0x38 platform/common/mp3.o
 .debug_aranges
                0x00000810       0x28 platform/common/mp3_dummy.o
 .debug_aranges
                0x00000838       0xd8 zlib/gzio.o
 .debug_aranges
                0x00000910       0x20 zlib/inffast.o
 .debug_aranges
                0x00000930       0x70 zlib/inflate.o
 .debug_aranges
                0x000009a0       0x20 zlib/inftrees.o
 .debug_aranges
                0x000009c0       0x58 zlib/trees.o
 .debug_aranges
                0x00000a18       0xa8 zlib/deflate.o
 .debug_aranges
                0x00000ac0       0x30 zlib/crc32.o
 .debug_aranges
                0x00000af0       0x28 zlib/adler32.o
 .debug_aranges
                0x00000b18       0x40 zlib/zutil.o
 .debug_aranges
                0x00000b58       0x30 zlib/compress.o
 .debug_aranges
                0x00000b88       0x20 zlib/uncompr.o
 .debug_aranges
                0x00000ba8       0x58 unzip/unzip.o
 .debug_aranges
                0x00000c00       0x28 unzip/unzip_stream.o
 .debug_aranges
                0x00000c28       0x20 pico/memory_arm.o
 .debug_aranges
                0x00000c48       0x20 pico/sound/ym2612_arm.o
 .debug_aranges
                0x00000c68       0x20 pico/misc_arm.o
 .debug_aranges
                0x00000c88       0x20 pico/cd/misc_arm.o
 .debug_aranges
                0x00000ca8       0x20 pico/cd/memory_arm.o
 .debug_aranges
                0x00000cc8       0x20 pico/sound/mix_arm.o
 .debug_aranges
                0x00000ce8       0x70 pico/pico.o
 .debug_aranges
                0x00000d58       0x80 pico/cart.o
 .debug_aranges
                0x00000dd8      0x1c0 pico/memory.o
 .debug_aranges
                0x00000f98       0x70 pico/state.o
 .debug_aranges
                0x00001008       0x88 pico/sek.o
 .debug_aranges
                0x00001090       0x58 pico/z80if.o
 .debug_aranges
                0x000010e8       0x38 pico/videoport.o
 .debug_aranges
                0x00001120       0x28 pico/draw2.o
 .debug_aranges
                0x00001148       0xb8 pico/draw.o
 .debug_aranges
                0x00001200       0x58 pico/mode4.o
 .debug_aranges
                0x00001258       0x18 pico/misc.o
 .debug_aranges
                0x00001270       0x30 pico/eeprom.o
 .debug_aranges
                0x000012a0       0x40 pico/patch.o
 .debug_aranges
                0x000012e0       0x60 pico/debug.o
 .debug_aranges
                0x00001340       0x28 pico/media.o
 .debug_aranges
                0x00001368       0x60 pico/sms.o
 .debug_aranges
                0x000013c8       0xa8 pico/cd/mcd.o
 .debug_aranges
                0x00001470      0x100 pico/cd/memory.o
 .debug_aranges
                0x00001570       0x50 pico/cd/sek.o
 .debug_aranges
                0x000015c0       0x68 pico/cd/cdc.o
 .debug_aranges
                0x00001628       0x60 pico/cd/cdd.o
 .debug_aranges
                0x00001688       0x28 pico/cd/cd_image.o
 .debug_aranges
                0x000016b0       0x28 pico/cd/cue.o
 .debug_aranges
                0x000016d8       0x40 pico/cd/gfx.o
 .debug_aranges
                0x00001718       0x20 pico/cd/gfx_dma.o
 .debug_aranges
                0x00001738       0x18 pico/cd/misc.o
 .debug_aranges
                0x00001750       0x38 pico/cd/pcm.o
 .debug_aranges
                0x00001788       0xc8 pico/32x/32x.o
 .debug_aranges
                0x00001850      0x1e8 pico/32x/memory.o
 .debug_aranges
                0x00001a38       0x98 pico/32x/draw.o
 .debug_aranges
                0x00001ad0       0x88 pico/32x/sh2soc.o
 .debug_aranges
                0x00001b58       0x68 pico/32x/pwm.o
 .debug_aranges
                0x00001bc0       0x38 pico/pico/pico.o
 .debug_aranges
                0x00001bf8       0x40 pico/pico/memory.o
 .debug_aranges
                0x00001c38       0x30 pico/pico/xpcm.o
 .debug_aranges
                0x00001c68      0x150 pico/carthw/carthw.o
 .debug_aranges
                0x00001db8       0x48 pico/carthw/svp/svp.o
 .debug_aranges
                0x00001e00       0x50 pico/carthw/svp/memory.o
 .debug_aranges
                0x00001e50       0xf0 pico/carthw/svp/ssp16.o
 .debug_aranges
                0x00001f40      0x178 pico/carthw/svp/compiler.o
 .debug_aranges
                0x000020b8       0x60 pico/sound/sound.o
 .debug_aranges
                0x00002118       0x30 pico/sound/sn76496.o
 .debug_aranges
                0x00002148       0x78 pico/sound/ym2612.o
 .debug_aranges
                0x000021c0       0x20 pico/m68kif_cyclone.o
 .debug_aranges
                0x000021e0       0x20 cpu/cyclone/Cyclone.o
 .debug_aranges
                0x00002200       0x20 cpu/cyclone/tools/idle.o
 .debug_aranges
                0x00002220       0x20 cpu/DrZ80/drz80.o
 .debug_aranges
                0x00002240       0x28 cpu/drc/cmn.o
 .debug_aranges
                0x00002268       0x58 cpu/sh2/sh2.o
 .debug_aranges
                0x000022c0      0x130 cpu/sh2/compiler.o
 .debug_aranges
                0x000023f0       0x40 cpu/sh2/mame/sh2pico.o
 .debug_aranges
                0x00002430       0x20 /media/BBB/lib/gcc/arm-linux-gnueabihf/4.9.1/libgcc.a(_divsi3.o)
 .debug_aranges
                0x00002450       0x20 /media/BBB/lib/gcc/arm-linux-gnueabihf/4.9.1/libgcc.a(_aeabi_ldivmod.o)
 .debug_aranges
                0x00002470       0x20 /media/BBB/lib/gcc/arm-linux-gnueabihf/4.9.1/libgcc.a(_dvmd_lnx.o)
 .debug_aranges
                0x00002490       0x20 /media/BBB/lib/gcc/arm-linux-gnueabihf/4.9.1/libgcc.a(bpabi.o)
 .debug_aranges
                0x000024b0       0x20 /media/BBB/lib/gcc/arm-linux-gnueabihf/4.9.1/libgcc.a(_divdi3.o)
 .debug_aranges
                0x000024d0       0x20 /media/BBB/lib/gcc/arm-linux-gnueabihf/4.9.1/libgcc.a(_udivdi3.o)

.debug_pubnames
 *(.debug_pubnames)

.debug_info     0x00000000    0x90459
 *(.debug_info .gnu.linkonce.wi.*)
 .debug_info    0x00000000     0x17bf platform/linux/emu.o
 .debug_info    0x000017bf     0x1612 platform/common/plat_sdl.o
 .debug_info    0x00002dd1     0x1dba platform/libpicofe/plat_sdl.o
 .debug_info    0x00004b8b     0x1e1c platform/libpicofe/in_sdl.o
 .debug_info    0x000069a7      0x1d6 platform/libpicofe/plat_dummy.o
 .debug_info    0x00006b7d      0x907 platform/common/main.o
 .debug_info    0x00007484     0x7921 platform/common/emu.o
 .debug_info    0x0000eda5     0x95ba platform/common/menu_pico.o
 .debug_info    0x0001835f     0x28eb platform/common/config_file.o
 .debug_info    0x0001ac4a     0x2407 platform/libpicofe/input.o
 .debug_info    0x0001d051     0x2147 platform/libpicofe/readpng.o
 .debug_info    0x0001f198      0x607 platform/libpicofe/fonts.o
 .debug_info    0x0001f79f      0xf59 platform/libpicofe/linux/plat.o
 .debug_info    0x000206f8      0x4bf platform/libpicofe/sndout.o
 .debug_info    0x00020bb7      0x8b2 platform/libpicofe/sndout_sdl.o
 .debug_info    0x00021469      0xc5f platform/common/mp3.o
 .debug_info    0x000220c8      0x341 platform/common/mp3_dummy.o
 .debug_info    0x00022409     0x2b33 zlib/gzio.o
 .debug_info    0x00024f3c      0x6da zlib/inffast.o
 .debug_info    0x00025616     0x1aeb zlib/inflate.o
 .debug_info    0x00027101      0x355 zlib/inftrees.o
 .debug_info    0x00027456     0x1a9f zlib/trees.o
 .debug_info    0x00028ef5     0x1db2 zlib/deflate.o
 .debug_info    0x0002aca7      0x4f1 zlib/crc32.o
 .debug_info    0x0002b198      0x162 zlib/adler32.o
 .debug_info    0x0002b2fa      0x200 zlib/zutil.o
 .debug_info    0x0002b4fa      0x497 zlib/compress.o
 .debug_info    0x0002b991      0x319 zlib/uncompr.o
 .debug_info    0x0002bcaa     0x19bc unzip/unzip.o
 .debug_info    0x0002d666      0xac9 unzip/unzip_stream.o
 .debug_info    0x0002e12f       0x5f pico/memory_arm.o
 .debug_info    0x0002e18e       0x65 pico/sound/ym2612_arm.o
 .debug_info    0x0002e1f3       0x5d pico/misc_arm.o
 .debug_info    0x0002e250       0x60 pico/cd/misc_arm.o
 .debug_info    0x0002e2b0       0x62 pico/cd/memory_arm.o
 .debug_info    0x0002e312       0x62 pico/sound/mix_arm.o
 .debug_info    0x0002e374     0x1fe0 pico/pico.o
 .debug_info    0x00030354     0x4e63 pico/cart.o
 .debug_info    0x000351b7     0x4a93 pico/memory.o
 .debug_info    0x00039c4a     0x4b94 pico/state.o
 .debug_info    0x0003e7de     0x106a pico/sek.o
 .debug_info    0x0003f848     0x1103 pico/z80if.o
 .debug_info    0x0004094b     0x16b7 pico/videoport.o
 .debug_info    0x00042002      0xe71 pico/draw2.o
 .debug_info    0x00042e73     0x24dd pico/draw.o
 .debug_info    0x00045350     0x1091 pico/mode4.o
 .debug_info    0x000463e1      0x57e pico/misc.o
 .debug_info    0x0004695f      0xf66 pico/eeprom.o
 .debug_info    0x000478c5     0x10c8 pico/patch.o
 .debug_info    0x0004898d     0x3175 pico/debug.o
 .debug_info    0x0004bb02     0x1d89 pico/media.o
 .debug_info    0x0004d88b     0x1271 pico/sms.o
 .debug_info    0x0004eafc     0x2703 pico/cd/mcd.o
 .debug_info    0x000511ff     0x26b3 pico/cd/memory.o
 .debug_info    0x000538b2     0x10a5 pico/cd/sek.o
 .debug_info    0x00054957     0x1293 pico/cd/cdc.o
 .debug_info    0x00055bea     0x1d1e pico/cd/cdd.o
 .debug_info    0x00057908     0x1819 pico/cd/cd_image.o
 .debug_info    0x00059121     0x1d5d pico/cd/cue.o
 .debug_info    0x0005ae7e     0x1134 pico/cd/gfx.o
 .debug_info    0x0005bfb2      0xdea pico/cd/gfx_dma.o
 .debug_info    0x0005cd9c      0x562 pico/cd/misc.o
 .debug_info    0x0005d2fe     0x10c4 pico/cd/pcm.o
 .debug_info    0x0005e3c2     0x34dd pico/32x/32x.o
 .debug_info    0x0006189f     0x3ed1 pico/32x/memory.o
 .debug_info    0x00065770     0x1bc8 pico/32x/draw.o
 .debug_info    0x00067338     0x1e92 pico/32x/sh2soc.o
 .debug_info    0x000691ca     0x16ee pico/32x/pwm.o
 .debug_info    0x0006a8b8      0xd13 pico/pico/pico.o
 .debug_info    0x0006b5cb      0xeac pico/pico/memory.o
 .debug_info    0x0006c477      0xb96 pico/pico/xpcm.o
 .debug_info    0x0006d00d     0x2858 pico/carthw/carthw.o
 .debug_info    0x0006f865      0xf2d pico/carthw/svp/svp.o
 .debug_info    0x00070792     0x127c pico/carthw/svp/memory.o
 .debug_info    0x00071a0e     0x2006 pico/carthw/svp/ssp16.o
 .debug_info    0x00073a14     0x4934 pico/carthw/svp/compiler.o
 .debug_info    0x00078348     0x1f50 pico/sound/sound.o
 .debug_info    0x0007a298      0x3cd pico/sound/sn76496.o
 .debug_info    0x0007a665     0x2f1c pico/sound/ym2612.o
 .debug_info    0x0007d581       0x63 pico/m68kif_cyclone.o
 .debug_info    0x0007d5e4       0x63 cpu/cyclone/Cyclone.o
 .debug_info    0x0007d647       0x66 cpu/cyclone/tools/idle.o
 .debug_info    0x0007d6ad       0x5f cpu/DrZ80/drz80.o
 .debug_info    0x0007d70c      0xa5f cpu/drc/cmn.o
 .debug_info    0x0007e16b      0x718 cpu/sh2/sh2.o
 .debug_info    0x0007e883     0xc310 cpu/sh2/compiler.o
 .debug_info    0x0008ab93     0x51a4 cpu/sh2/mame/sh2pico.o
 .debug_info    0x0008fd37       0x84 /media/BBB/lib/gcc/arm-linux-gnueabihf/4.9.1/libgcc.a(_divsi3.o)
 .debug_info    0x0008fdbb       0x80 /media/BBB/lib/gcc/arm-linux-gnueabihf/4.9.1/libgcc.a(_aeabi_ldivmod.o)
 .debug_info    0x0008fe3b       0x84 /media/BBB/lib/gcc/arm-linux-gnueabihf/4.9.1/libgcc.a(_dvmd_lnx.o)
 .debug_info    0x0008febf      0x164 /media/BBB/lib/gcc/arm-linux-gnueabihf/4.9.1/libgcc.a(bpabi.o)
 .debug_info    0x00090023      0x26c /media/BBB/lib/gcc/arm-linux-gnueabihf/4.9.1/libgcc.a(_divdi3.o)
 .debug_info    0x0009028f      0x1ca /media/BBB/lib/gcc/arm-linux-gnueabihf/4.9.1/libgcc.a(_udivdi3.o)

.debug_abbrev   0x00000000    0x12225
 *(.debug_abbrev)
 .debug_abbrev  0x00000000      0x404 platform/linux/emu.o
 .debug_abbrev  0x00000404      0x33a platform/common/plat_sdl.o
 .debug_abbrev  0x0000073e      0x42a platform/libpicofe/plat_sdl.o
 .debug_abbrev  0x00000b68      0x436 platform/libpicofe/in_sdl.o
 .debug_abbrev  0x00000f9e       0xb6 platform/libpicofe/plat_dummy.o
 .debug_abbrev  0x00001054      0x2a1 platform/common/main.o
 .debug_abbrev  0x000012f5      0x734 platform/common/emu.o
 .debug_abbrev  0x00001a29      0x6ef platform/common/menu_pico.o
 .debug_abbrev  0x00002118      0x441 platform/common/config_file.o
 .debug_abbrev  0x00002559      0x5a8 platform/libpicofe/input.o
 .debug_abbrev  0x00002b01      0x2c4 platform/libpicofe/readpng.o
 .debug_abbrev  0x00002dc5      0x202 platform/libpicofe/fonts.o
 .debug_abbrev  0x00002fc7      0x2fb platform/libpicofe/linux/plat.o
 .debug_abbrev  0x000032c2      0x1de platform/libpicofe/sndout.o
 .debug_abbrev  0x000034a0      0x29f platform/libpicofe/sndout_sdl.o
 .debug_abbrev  0x0000373f      0x3b7 platform/common/mp3.o
 .debug_abbrev  0x00003af6       0xeb platform/common/mp3_dummy.o
 .debug_abbrev  0x00003be1      0x430 zlib/gzio.o
 .debug_abbrev  0x00004011      0x185 zlib/inffast.o
 .debug_abbrev  0x00004196      0x3ce zlib/inflate.o
 .debug_abbrev  0x00004564      0x112 zlib/inftrees.o
 .debug_abbrev  0x00004676      0x325 zlib/trees.o
 .debug_abbrev  0x0000499b      0x461 zlib/deflate.o
 .debug_abbrev  0x00004dfc      0x21d zlib/crc32.o
 .debug_abbrev  0x00005019       0x9f zlib/adler32.o
 .debug_abbrev  0x000050b8      0x16d zlib/zutil.o
 .debug_abbrev  0x00005225      0x1de zlib/compress.o
 .debug_abbrev  0x00005403      0x156 zlib/uncompr.o
 .debug_abbrev  0x00005559      0x3ae unzip/unzip.o
 .debug_abbrev  0x00005907      0x1d8 unzip/unzip_stream.o
 .debug_abbrev  0x00005adf       0x14 pico/memory_arm.o
 .debug_abbrev  0x00005af3       0x14 pico/sound/ym2612_arm.o
 .debug_abbrev  0x00005b07       0x14 pico/misc_arm.o
 .debug_abbrev  0x00005b1b       0x14 pico/cd/misc_arm.o
 .debug_abbrev  0x00005b2f       0x14 pico/cd/memory_arm.o
 .debug_abbrev  0x00005b43       0x14 pico/sound/mix_arm.o
 .debug_abbrev  0x00005b57      0x52d pico/pico.o
 .debug_abbrev  0x00006084      0x627 pico/cart.o
 .debug_abbrev  0x000066ab      0x741 pico/memory.o
 .debug_abbrev  0x00006dec      0x654 pico/state.o
 .debug_abbrev  0x00007440      0x403 pico/sek.o
 .debug_abbrev  0x00007843      0x414 pico/z80if.o
 .debug_abbrev  0x00007c57      0x442 pico/videoport.o
 .debug_abbrev  0x00008099      0x2e1 pico/draw2.o
 .debug_abbrev  0x0000837a      0x4da pico/draw.o
 .debug_abbrev  0x00008854      0x439 pico/mode4.o
 .debug_abbrev  0x00008c8d      0x16a pico/misc.o
 .debug_abbrev  0x00008df7      0x2f7 pico/eeprom.o
 .debug_abbrev  0x000090ee      0x3c9 pico/patch.o
 .debug_abbrev  0x000094b7      0x470 pico/debug.o
 .debug_abbrev  0x00009927      0x481 pico/media.o
 .debug_abbrev  0x00009da8      0x40c pico/sms.o
 .debug_abbrev  0x0000a1b4      0x5f1 pico/cd/mcd.o
 .debug_abbrev  0x0000a7a5      0x5a8 pico/cd/memory.o
 .debug_abbrev  0x0000ad4d      0x346 pico/cd/sek.o
 .debug_abbrev  0x0000b093      0x3d9 pico/cd/cdc.o
 .debug_abbrev  0x0000b46c      0x49f pico/cd/cdd.o
 .debug_abbrev  0x0000b90b      0x38e pico/cd/cd_image.o
 .debug_abbrev  0x0000bc99      0x450 pico/cd/cue.o
 .debug_abbrev  0x0000c0e9      0x3ad pico/cd/gfx.o
 .debug_abbrev  0x0000c496      0x26f pico/cd/gfx_dma.o
 .debug_abbrev  0x0000c705      0x163 pico/cd/misc.o
 .debug_abbrev  0x0000c868      0x29d pico/cd/pcm.o
 .debug_abbrev  0x0000cb05      0x60e pico/32x/32x.o
 .debug_abbrev  0x0000d113      0x60c pico/32x/memory.o
 .debug_abbrev  0x0000d71f      0x3fd pico/32x/draw.o
 .debug_abbrev  0x0000db1c      0x505 pico/32x/sh2soc.o
 .debug_abbrev  0x0000e021      0x45b pico/32x/pwm.o
 .debug_abbrev  0x0000e47c      0x2cb pico/pico/pico.o
 .debug_abbrev  0x0000e747      0x32f pico/pico/memory.o
 .debug_abbrev  0x0000ea76      0x2b5 pico/pico/xpcm.o
 .debug_abbrev  0x0000ed2b      0x54b pico/carthw/carthw.o
 .debug_abbrev  0x0000f276      0x3f5 pico/carthw/svp/svp.o
 .debug_abbrev  0x0000f66b      0x3f4 pico/carthw/svp/memory.o
 .debug_abbrev  0x0000fa5f      0x4a5 pico/carthw/svp/ssp16.o
 .debug_abbrev  0x0000ff04      0x6c6 pico/carthw/svp/compiler.o
 .debug_abbrev  0x000105ca      0x4ef pico/sound/sound.o
 .debug_abbrev  0x00010ab9      0x1cf pico/sound/sn76496.o
 .debug_abbrev  0x00010c88      0x3cb pico/sound/ym2612.o
 .debug_abbrev  0x00011053       0x14 pico/m68kif_cyclone.o
 .debug_abbrev  0x00011067       0x14 cpu/cyclone/Cyclone.o
 .debug_abbrev  0x0001107b       0x14 cpu/cyclone/tools/idle.o
 .debug_abbrev  0x0001108f       0x14 cpu/DrZ80/drz80.o
 .debug_abbrev  0x000110a3      0x277 cpu/drc/cmn.o
 .debug_abbrev  0x0001131a      0x25c cpu/sh2/sh2.o
 .debug_abbrev  0x00011576      0x630 cpu/sh2/compiler.o
 .debug_abbrev  0x00011ba6      0x39d cpu/sh2/mame/sh2pico.o
 .debug_abbrev  0x00011f43       0x14 /media/BBB/lib/gcc/arm-linux-gnueabihf/4.9.1/libgcc.a(_divsi3.o)
 .debug_abbrev  0x00011f57       0x14 /media/BBB/lib/gcc/arm-linux-gnueabihf/4.9.1/libgcc.a(_aeabi_ldivmod.o)
 .debug_abbrev  0x00011f6b       0x14 /media/BBB/lib/gcc/arm-linux-gnueabihf/4.9.1/libgcc.a(_dvmd_lnx.o)
 .debug_abbrev  0x00011f7f       0xb7 /media/BBB/lib/gcc/arm-linux-gnueabihf/4.9.1/libgcc.a(bpabi.o)
 .debug_abbrev  0x00012036      0x121 /media/BBB/lib/gcc/arm-linux-gnueabihf/4.9.1/libgcc.a(_divdi3.o)
 .debug_abbrev  0x00012157       0xce /media/BBB/lib/gcc/arm-linux-gnueabihf/4.9.1/libgcc.a(_udivdi3.o)

.debug_line     0x00000000    0x2a479
 *(.debug_line)
 .debug_line    0x00000000      0x353 platform/linux/emu.o
 .debug_line    0x00000353      0x507 platform/common/plat_sdl.o
 .debug_line    0x0000085a      0x3ae platform/libpicofe/plat_sdl.o
 .debug_line    0x00000c08      0x404 platform/libpicofe/in_sdl.o
 .debug_line    0x0000100c       0x76 platform/libpicofe/plat_dummy.o
 .debug_line    0x00001082      0x201 platform/common/main.o
 .debug_line    0x00001283     0x12e9 platform/common/emu.o
 .debug_line    0x0000256c     0x2015 platform/common/menu_pico.o
 .debug_line    0x00004581      0x5f1 platform/common/config_file.o
 .debug_line    0x00004b72      0x980 platform/libpicofe/input.o
 .debug_line    0x000054f2      0x347 platform/libpicofe/readpng.o
 .debug_line    0x00005839      0x1ac platform/libpicofe/fonts.o
 .debug_line    0x000059e5      0x371 platform/libpicofe/linux/plat.o
 .debug_line    0x00005d56      0x164 platform/libpicofe/sndout.o
 .debug_line    0x00005eba      0x237 platform/libpicofe/sndout_sdl.o
 .debug_line    0x000060f1      0x234 platform/common/mp3.o
 .debug_line    0x00006325       0xf1 platform/common/mp3_dummy.o
 .debug_line    0x00006416      0xd7e zlib/gzio.o
 .debug_line    0x00007194      0x23d zlib/inffast.o
 .debug_line    0x000073d1      0x995 zlib/inflate.o
 .debug_line    0x00007d66      0x1df zlib/inftrees.o
 .debug_line    0x00007f45      0x72a zlib/trees.o
 .debug_line    0x0000866f      0xc58 zlib/deflate.o
 .debug_line    0x000092c7      0x17e zlib/crc32.o
 .debug_line    0x00009445      0x12d zlib/adler32.o
 .debug_line    0x00009572       0xe9 zlib/zutil.o
 .debug_line    0x0000965b       0xd6 zlib/compress.o
 .debug_line    0x00009731       0x93 zlib/uncompr.o
 .debug_line    0x000097c4      0x4ac unzip/unzip.o
 .debug_line    0x00009c70      0x1c3 unzip/unzip_stream.o
 .debug_line    0x00009e33       0xfb pico/memory_arm.o
 .debug_line    0x00009f2e       0xdf pico/sound/ym2612_arm.o
 .debug_line    0x0000a00d       0xa5 pico/misc_arm.o
 .debug_line    0x0000a0b2       0x63 pico/cd/misc_arm.o
 .debug_line    0x0000a115      0x1d6 pico/cd/memory_arm.o
 .debug_line    0x0000a2eb      0x125 pico/sound/mix_arm.o
 .debug_line    0x0000a410      0x625 pico/pico.o
 .debug_line    0x0000aa35      0xad7 pico/cart.o
 .debug_line    0x0000b50c      0xe50 pico/memory.o
 .debug_line    0x0000c35c      0xec9 pico/state.o
 .debug_line    0x0000d225      0x3ef pico/sek.o
 .debug_line    0x0000d614      0x2dc pico/z80if.o
 .debug_line    0x0000d8f0      0x419 pico/videoport.o
 .debug_line    0x0000dd09      0x1f4 pico/draw2.o
 .debug_line    0x0000defd      0xa39 pico/draw.o
 .debug_line    0x0000e936      0x332 pico/mode4.o
 .debug_line    0x0000ec68       0xcf pico/misc.o
 .debug_line    0x0000ed37      0x36d pico/eeprom.o
 .debug_line    0x0000f0a4      0x31a pico/patch.o
 .debug_line    0x0000f3be      0x694 pico/debug.o
 .debug_line    0x0000fa52      0x2e2 pico/media.o
 .debug_line    0x0000fd34      0x36a pico/sms.o
 .debug_line    0x0001009e      0x8b2 pico/cd/mcd.o
 .debug_line    0x00010950      0x661 pico/cd/memory.o
 .debug_line    0x00010fb1      0x1b9 pico/cd/sek.o
 .debug_line    0x0001116a      0x4d5 pico/cd/cdc.o
 .debug_line    0x0001163f      0x63f pico/cd/cdd.o
 .debug_line    0x00011c7e      0x35b pico/cd/cd_image.o
 .debug_line    0x00011fd9      0x511 pico/cd/cue.o
 .debug_line    0x000124ea      0x3bd pico/cd/gfx.o
 .debug_line    0x000128a7      0x1e1 pico/cd/gfx_dma.o
 .debug_line    0x00012a88       0xdd pico/cd/misc.o
 .debug_line    0x00012b65      0x226 pico/cd/pcm.o
 .debug_line    0x00012d8b      0xae9 pico/32x/32x.o
 .debug_line    0x00013874      0xef6 pico/32x/memory.o
 .debug_line    0x0001476a      0x55a pico/32x/draw.o
 .debug_line    0x00014cc4      0x4d0 pico/32x/sh2soc.o
 .debug_line    0x00015194      0x448 pico/32x/pwm.o
 .debug_line    0x000155dc      0x1c4 pico/pico/pico.o
 .debug_line    0x000157a0      0x1b3 pico/pico/memory.o
 .debug_line    0x00015953      0x215 pico/pico/xpcm.o
 .debug_line    0x00015b68      0x827 pico/carthw/carthw.o
 .debug_line    0x0001638f      0x246 pico/carthw/svp/svp.o
 .debug_line    0x000165d5      0x25b pico/carthw/svp/memory.o
 .debug_line    0x00016830      0xba4 pico/carthw/svp/ssp16.o
 .debug_line    0x000173d4     0x1c68 pico/carthw/svp/compiler.o
 .debug_line    0x0001903c      0x44a pico/sound/sound.o
 .debug_line    0x00019486      0x1dd pico/sound/sn76496.o
 .debug_line    0x00019663     0x2085 pico/sound/ym2612.o
 .debug_line    0x0001b6e8       0xa4 pico/m68kif_cyclone.o
 .debug_line    0x0001b78c     0x8c8a cpu/cyclone/Cyclone.o
 .debug_line    0x00024416       0xb4 cpu/cyclone/tools/idle.o
 .debug_line    0x000244ca      0x9ca cpu/DrZ80/drz80.o
 .debug_line    0x00024e94      0x121 cpu/drc/cmn.o
 .debug_line    0x00024fb5      0x141 cpu/sh2/sh2.o
 .debug_line    0x000250f6     0x3fd8 cpu/sh2/compiler.o
 .debug_line    0x000290ce     0x10da cpu/sh2/mame/sh2pico.o
 .debug_line    0x0002a1a8       0x8a /media/BBB/lib/gcc/arm-linux-gnueabihf/4.9.1/libgcc.a(_divsi3.o)
 .debug_line    0x0002a232       0x5a /media/BBB/lib/gcc/arm-linux-gnueabihf/4.9.1/libgcc.a(_aeabi_ldivmod.o)
 .debug_line    0x0002a28c       0x5c /media/BBB/lib/gcc/arm-linux-gnueabihf/4.9.1/libgcc.a(_dvmd_lnx.o)
 .debug_line    0x0002a2e8       0x5c /media/BBB/lib/gcc/arm-linux-gnueabihf/4.9.1/libgcc.a(bpabi.o)
 .debug_line    0x0002a344       0xa4 /media/BBB/lib/gcc/arm-linux-gnueabihf/4.9.1/libgcc.a(_divdi3.o)
 .debug_line    0x0002a3e8       0x91 /media/BBB/lib/gcc/arm-linux-gnueabihf/4.9.1/libgcc.a(_udivdi3.o)

.debug_frame    0x00000000     0x7b34
 *(.debug_frame)
 .debug_frame   0x00000000      0x178 platform/linux/emu.o
 .debug_frame   0x00000178      0x17c platform/common/plat_sdl.o
 .debug_frame   0x000002f4       0xcc platform/libpicofe/plat_sdl.o
 .debug_frame   0x000003c0      0x118 platform/libpicofe/in_sdl.o
 .debug_frame   0x000004d8       0x40 platform/libpicofe/plat_dummy.o
 .debug_frame   0x00000518       0x50 platform/common/main.o
 .debug_frame   0x00000568      0x5f0 platform/common/emu.o
 .debug_frame   0x00000b58      0x808 platform/common/menu_pico.o
 .debug_frame   0x00001360      0x110 platform/common/config_file.o
 .debug_frame   0x00001470      0x47c platform/libpicofe/input.o
 .debug_frame   0x000018ec       0x74 platform/libpicofe/readpng.o
 .debug_frame   0x00001960       0x90 platform/libpicofe/fonts.o
 .debug_frame   0x000019f0      0x1b0 platform/libpicofe/linux/plat.o
 .debug_frame   0x00001ba0       0x90 platform/libpicofe/sndout.o
 .debug_frame   0x00001c30       0xf4 platform/libpicofe/sndout_sdl.o
 .debug_frame   0x00001d24       0xac platform/common/mp3.o
 .debug_frame   0x00001dd0       0x30 platform/common/mp3_dummy.o
 .debug_frame   0x00001e00      0x3c8 zlib/gzio.o
 .debug_frame   0x000021c8       0x44 zlib/inffast.o
 .debug_frame   0x0000220c      0x1dc zlib/inflate.o
 .debug_frame   0x000023e8       0x58 zlib/inftrees.o
 .debug_frame   0x00002440      0x158 zlib/trees.o
 .debug_frame   0x00002598      0x2e8 zlib/deflate.o
 .debug_frame   0x00002880       0x74 zlib/crc32.o
 .debug_frame   0x000028f4       0x5c zlib/adler32.o
 .debug_frame   0x00002950       0x60 zlib/zutil.o
 .debug_frame   0x000029b0       0x78 zlib/compress.o
 .debug_frame   0x00002a28       0x40 zlib/uncompr.o
 .debug_frame   0x00002a68      0x138 unzip/unzip.o
 .debug_frame   0x00002ba0       0x44 unzip/unzip_stream.o
 .debug_frame   0x00002be4      0x1bc pico/pico.o
 .debug_frame   0x00002da0      0x210 pico/cart.o
 .debug_frame   0x00002fb0      0x514 pico/memory.o
 .debug_frame   0x000034c4      0x1a8 pico/state.o
 .debug_frame   0x0000366c      0x168 pico/sek.o
 .debug_frame   0x000037d4       0xd8 pico/z80if.o
 .debug_frame   0x000038ac       0xac pico/videoport.o
 .debug_frame   0x00003958       0x84 pico/draw2.o
 .debug_frame   0x000039dc      0x2d8 pico/draw.o
 .debug_frame   0x00003cb4      0x110 pico/mode4.o
 .debug_frame   0x00003dc4       0xa0 pico/eeprom.o
 .debug_frame   0x00003e64       0xbc pico/patch.o
 .debug_frame   0x00003f20      0x188 pico/debug.o
 .debug_frame   0x000040a8       0x70 pico/media.o
 .debug_frame   0x00004118      0x148 pico/sms.o
 .debug_frame   0x00004260      0x214 pico/cd/mcd.o
 .debug_frame   0x00004474      0x2f0 pico/cd/memory.o
 .debug_frame   0x00004764       0x90 pico/cd/sek.o
 .debug_frame   0x000047f4      0x128 pico/cd/cdc.o
 .debug_frame   0x0000491c      0x170 pico/cd/cdd.o
 .debug_frame   0x00004a8c       0x74 pico/cd/cd_image.o
 .debug_frame   0x00004b00       0x90 pico/cd/cue.o
 .debug_frame   0x00004b90       0xdc pico/cd/gfx.o
 .debug_frame   0x00004c6c       0x34 pico/cd/gfx_dma.o
 .debug_frame   0x00004ca0       0x9c pico/cd/pcm.o
 .debug_frame   0x00004d3c      0x2d0 pico/32x/32x.o
 .debug_frame   0x0000500c      0x740 pico/32x/memory.o
 .debug_frame   0x0000574c      0x2c8 pico/32x/draw.o
 .debug_frame   0x00005a14      0x1ec pico/32x/sh2soc.o
 .debug_frame   0x00005c00      0x198 pico/32x/pwm.o
 .debug_frame   0x00005d98       0x80 pico/pico/pico.o
 .debug_frame   0x00005e18       0x70 pico/pico/memory.o
 .debug_frame   0x00005e88       0x7c pico/pico/xpcm.o
 .debug_frame   0x00005f04      0x5dc pico/carthw/carthw.o
 .debug_frame   0x000064e0       0xc4 pico/carthw/svp/svp.o
 .debug_frame   0x000065a4       0xa4 pico/carthw/svp/memory.o
 .debug_frame   0x00006648      0x2e0 pico/carthw/svp/ssp16.o
 .debug_frame   0x00006928      0x520 pico/carthw/svp/compiler.o
 .debug_frame   0x00006e48      0x17c pico/sound/sound.o
 .debug_frame   0x00006fc4       0x84 pico/sound/sn76496.o
 .debug_frame   0x00007048      0x24c pico/sound/ym2612.o
 .debug_frame   0x00007294       0x4c cpu/drc/cmn.o
 .debug_frame   0x000072e0       0xdc cpu/sh2/sh2.o
 .debug_frame   0x000073bc      0x574 cpu/sh2/compiler.o
 .debug_frame   0x00007930       0xe4 cpu/sh2/mame/sh2pico.o
 .debug_frame   0x00007a14       0x20 /media/BBB/lib/gcc/arm-linux-gnueabihf/4.9.1/libgcc.a(_divsi3.o)
 .debug_frame   0x00007a34       0x28 /media/BBB/lib/gcc/arm-linux-gnueabihf/4.9.1/libgcc.a(_aeabi_ldivmod.o)
 .debug_frame   0x00007a5c       0x54 /media/BBB/lib/gcc/arm-linux-gnueabihf/4.9.1/libgcc.a(bpabi.o)
 .debug_frame   0x00007ab0       0x40 /media/BBB/lib/gcc/arm-linux-gnueabihf/4.9.1/libgcc.a(_divdi3.o)
 .debug_frame   0x00007af0       0x44 /media/BBB/lib/gcc/arm-linux-gnueabihf/4.9.1/libgcc.a(_udivdi3.o)

.debug_str      0x00000000     0xe396
 *(.debug_str)
 .debug_str     0x00000000     0x137a platform/linux/emu.o
                               0x1521 (size before relaxing)
 .debug_str     0x0000137a     0x1195 platform/common/plat_sdl.o
                               0x1dbc (size before relaxing)
 .debug_str     0x0000250f      0x4c3 platform/libpicofe/plat_sdl.o
                               0x206c (size before relaxing)
 .debug_str     0x000029d2      0x404 platform/libpicofe/in_sdl.o
                               0x2024 (size before relaxing)
 .debug_str     0x00002dd6       0x5c platform/libpicofe/plat_dummy.o
                                0xad1 (size before relaxing)
 .debug_str     0x00002e32      0x1d1 platform/common/main.o
                                0xe71 (size before relaxing)
 .debug_str     0x00003003      0xd4e platform/common/emu.o
                               0x240d (size before relaxing)
 .debug_str     0x00003d51     0x14af platform/common/menu_pico.o
                               0x2a0a (size before relaxing)
 .debug_str     0x00005200      0x127 platform/common/config_file.o
                               0x18bf (size before relaxing)
 .debug_str     0x00005327      0x380 platform/libpicofe/input.o
                               0x13b2 (size before relaxing)
 .debug_str     0x000056a7      0xdf0 platform/libpicofe/readpng.o
                               0x1bc9 (size before relaxing)
 .debug_str     0x00006497       0x57 platform/libpicofe/fonts.o
                                0xc0f (size before relaxing)
 .debug_str     0x000064ee      0x187 platform/libpicofe/linux/plat.o
                                0xeeb (size before relaxing)
 .debug_str     0x00006675       0xa4 platform/libpicofe/sndout.o
                                0xc65 (size before relaxing)
 .debug_str     0x00006719      0x108 platform/libpicofe/sndout_sdl.o
                                0xef0 (size before relaxing)
 .debug_str     0x00006821      0x112 platform/common/mp3.o
                                0xde6 (size before relaxing)
 .debug_str     0x00006933       0x27 platform/common/mp3_dummy.o
                                0xbab (size before relaxing)
 .debug_str     0x0000695a      0x1cb zlib/gzio.o
                                0xf27 (size before relaxing)
 .debug_str     0x00006b25      0x17b zlib/inffast.o
                                0xccf (size before relaxing)
 .debug_str     0x00006ca0      0x11e zlib/inflate.o
                                0xe17 (size before relaxing)
 .debug_str     0x00006dbe       0x51 zlib/inftrees.o
                                0xa96 (size before relaxing)
 .debug_str     0x00006e0f      0x480 zlib/trees.o
                               0x1064 (size before relaxing)
 .debug_str     0x0000728f      0x265 zlib/deflate.o
                               0x115d (size before relaxing)
 .debug_str     0x000074f4       0x8a zlib/crc32.o
                                0xa6b (size before relaxing)
 .debug_str     0x0000757e       0x37 zlib/adler32.o
                                0x9cd (size before relaxing)
 .debug_str     0x000075b5       0x40 zlib/zutil.o
                                0xa45 (size before relaxing)
 .debug_str     0x000075f5       0x10 zlib/compress.o
                                0xab6 (size before relaxing)
 .debug_str     0x00007605       0x1a zlib/uncompr.o
                                0xa99 (size before relaxing)
 .debug_str     0x0000761f      0x339 unzip/unzip.o
                               0x1022 (size before relaxing)
 .debug_str     0x00007958       0x25 unzip/unzip_stream.o
                                0xf75 (size before relaxing)
 .debug_str     0x0000797d      0x668 pico/pico.o
                               0x1646 (size before relaxing)
 .debug_str     0x00007fe5      0x425 pico/cart.o
                               0x18b3 (size before relaxing)
 .debug_str     0x0000840a      0x558 pico/memory.o
                               0x1861 (size before relaxing)
 .debug_str     0x00008962      0x74f pico/state.o
                               0x192e (size before relaxing)
 .debug_str     0x000090b1      0x153 pico/sek.o
                               0x10e1 (size before relaxing)
 .debug_str     0x00009204       0xa7 pico/z80if.o
                               0x1040 (size before relaxing)
 .debug_str     0x000092ab       0xbd pico/videoport.o
                               0x11d4 (size before relaxing)
 .debug_str     0x00009368      0xa46 pico/draw2.o
                                0xf70 (size before relaxing)
 .debug_str     0x00009dae      0x3b0 pico/draw.o
                               0x1335 (size before relaxing)
 .debug_str     0x0000a15e      0x126 pico/mode4.o
                               0x1068 (size before relaxing)
 .debug_str     0x0000a284        0xc pico/misc.o
                                0xc8d (size before relaxing)
 .debug_str     0x0000a290       0x61 pico/eeprom.o
                                0xfa6 (size before relaxing)
 .debug_str     0x0000a2f1       0x67 pico/patch.o
                                0xf55 (size before relaxing)
 .debug_str     0x0000a358       0x56 pico/debug.o
                               0x1856 (size before relaxing)
 .debug_str     0x0000a3ae      0x150 pico/media.o
                               0x137b (size before relaxing)
 .debug_str     0x0000a4fe       0x9e pico/sms.o
                               0x10c5 (size before relaxing)
 .debug_str     0x0000a59c      0x25e pico/cd/mcd.o
                               0x1832 (size before relaxing)
 .debug_str     0x0000a7fa      0x2de pico/cd/memory.o
                               0x155a (size before relaxing)
 .debug_str     0x0000aad8       0x7d pico/cd/sek.o
                               0x112b (size before relaxing)
 .debug_str     0x0000ab55      0x105 pico/cd/cdc.o
                               0x1180 (size before relaxing)
 .debug_str     0x0000ac5a       0xf1 pico/cd/cdd.o
                               0x122f (size before relaxing)
 .debug_str     0x0000ad4b       0x93 pico/cd/cd_image.o
                               0x11f9 (size before relaxing)
 .debug_str     0x0000adde       0xa4 pico/cd/cue.o
                               0x101e (size before relaxing)
 .debug_str     0x0000ae82      0x103 pico/cd/gfx.o
                               0x113b (size before relaxing)
 .debug_str     0x0000af85       0x26 pico/cd/gfx_dma.o
                                0xfca (size before relaxing)
 .debug_str     0x0000afab        0xf pico/cd/misc.o
                                0xc89 (size before relaxing)
 .debug_str     0x0000afba       0x5d pico/cd/pcm.o
                               0x10e9 (size before relaxing)
 .debug_str     0x0000b017      0x358 pico/32x/32x.o
                               0x1a16 (size before relaxing)
 .debug_str     0x0000b36f      0x683 pico/32x/memory.o
                               0x19db (size before relaxing)
 .debug_str     0x0000b9f2      0x1a9 pico/32x/draw.o
                               0x11db (size before relaxing)
 .debug_str     0x0000bb9b      0x172 pico/32x/sh2soc.o
                               0x1386 (size before relaxing)
 .debug_str     0x0000bd0d      0x10a pico/32x/pwm.o
                               0x12fa (size before relaxing)
 .debug_str     0x0000be17       0xa2 pico/pico/pico.o
                               0x1012 (size before relaxing)
 .debug_str     0x0000beb9       0x5b pico/pico/memory.o
                               0x1018 (size before relaxing)
 .debug_str     0x0000bf14       0x67 pico/pico/xpcm.o
                                0xf0f (size before relaxing)
 .debug_str     0x0000bf7b      0x3af pico/carthw/carthw.o
                               0x145c (size before relaxing)
 .debug_str     0x0000c32a      0x1b0 pico/carthw/svp/svp.o
                               0x107e (size before relaxing)
 .debug_str     0x0000c4da      0x106 pico/carthw/svp/memory.o
                               0x10e8 (size before relaxing)
 .debug_str     0x0000c5e0      0x178 pico/carthw/svp/ssp16.o
                               0x10c1 (size before relaxing)
 .debug_str     0x0000c758      0x560 pico/carthw/svp/compiler.o
                               0x1585 (size before relaxing)
 .debug_str     0x0000ccb8      0x15a pico/sound/sound.o
                               0x14a5 (size before relaxing)
 .debug_str     0x0000ce12       0x9e pico/sound/sn76496.o
                                0xa6d (size before relaxing)
 .debug_str     0x0000ceb0      0x3a2 pico/sound/ym2612.o
                                0xfcc (size before relaxing)
 .debug_str     0x0000d252       0x2a cpu/drc/cmn.o
                                0xe5f (size before relaxing)
 .debug_str     0x0000d27c       0x41 cpu/sh2/sh2.o
                                0xbaa (size before relaxing)
 .debug_str     0x0000d2bd      0x9d5 cpu/sh2/compiler.o
                               0x1b5b (size before relaxing)
 .debug_str     0x0000dc92      0x3ac cpu/sh2/mame/sh2pico.o
                                0xf8e (size before relaxing)
 .debug_str     0x0000e03e      0x1c9 /media/BBB/lib/gcc/arm-linux-gnueabihf/4.9.1/libgcc.a(bpabi.o)
                                0x1ee (size before relaxing)
 .debug_str     0x0000e207      0x18f /media/BBB/lib/gcc/arm-linux-gnueabihf/4.9.1/libgcc.a(_divdi3.o)
                                0x282 (size before relaxing)
 .debug_str     0x00000000      0x25f /media/BBB/lib/gcc/arm-linux-gnueabihf/4.9.1/libgcc.a(_udivdi3.o)

.debug_loc      0x00000000    0x8ad7d
 *(.debug_loc)
 .debug_loc     0x00000000      0x418 platform/linux/emu.o
 .debug_loc     0x00000418      0x78e platform/common/plat_sdl.o
 .debug_loc     0x00000ba6      0x3d3 platform/libpicofe/plat_sdl.o
 .debug_loc     0x00000f79      0xe95 platform/libpicofe/in_sdl.o
 .debug_loc     0x00001e0e      0x1b9 platform/common/main.o
 .debug_loc     0x00001fc7     0x5e45 platform/common/emu.o
 .debug_loc     0x00007e0c     0xbe76 platform/common/menu_pico.o
 .debug_loc     0x00013c82     0x17cf platform/common/config_file.o
 .debug_loc     0x00015451     0x276c platform/libpicofe/input.o
 .debug_loc     0x00017bbd      0xab7 platform/libpicofe/readpng.o
 .debug_loc     0x00018674      0x594 platform/libpicofe/fonts.o
 .debug_loc     0x00018c08      0x7a0 platform/libpicofe/linux/plat.o
 .debug_loc     0x000193a8       0x6e platform/libpicofe/sndout.o
 .debug_loc     0x00019416      0x443 platform/libpicofe/sndout_sdl.o
 .debug_loc     0x00019859      0x6cc platform/common/mp3.o
 .debug_loc     0x00019f25       0x42 platform/common/mp3_dummy.o
 .debug_loc     0x00019f67     0x2454 zlib/gzio.o
 .debug_loc     0x0001c3bb      0xae6 zlib/inffast.o
 .debug_loc     0x0001cea1     0x2933 zlib/inflate.o
 .debug_loc     0x0001f7d4      0xe6a zlib/inftrees.o
 .debug_loc     0x0002063e     0x2572 zlib/trees.o
 .debug_loc     0x00022bb0     0x1dac zlib/deflate.o
 .debug_loc     0x0002495c      0x799 zlib/crc32.o
 .debug_loc     0x000250f5      0x611 zlib/adler32.o
 .debug_loc     0x00025706       0xc6 zlib/zutil.o
 .debug_loc     0x000257cc      0x266 zlib/compress.o
 .debug_loc     0x00025a32       0xfc zlib/uncompr.o
 .debug_loc     0x00025b2e      0xef3 unzip/unzip.o
 .debug_loc     0x00026a21      0x260 unzip/unzip_stream.o
 .debug_loc     0x00026c81      0xd2f pico/pico.o
 .debug_loc     0x000279b0     0x2eb3 pico/cart.o
 .debug_loc     0x0002a863     0x65cb pico/memory.o
 .debug_loc     0x00030e2e     0x1d9c pico/state.o
 .debug_loc     0x00032bca      0x41c pico/sek.o
 .debug_loc     0x00032fe6      0x384 pico/z80if.o
 .debug_loc     0x0003336a      0xe88 pico/videoport.o
 .debug_loc     0x000341f2      0x6b3 pico/draw2.o
 .debug_loc     0x000348a5     0x37e5 pico/draw.o
 .debug_loc     0x0003808a      0xb1a pico/mode4.o
 .debug_loc     0x00038ba4      0x9cf pico/eeprom.o
 .debug_loc     0x00039573      0xc3a pico/patch.o
 .debug_loc     0x0003a1ad     0x1047 pico/debug.o
 .debug_loc     0x0003b1f4      0x8a9 pico/media.o
 .debug_loc     0x0003ba9d      0x6a1 pico/sms.o
 .debug_loc     0x0003c13e     0x11a2 pico/cd/mcd.o
 .debug_loc     0x0003d2e0     0x1613 pico/cd/memory.o
 .debug_loc     0x0003e8f3      0x15d pico/cd/sek.o
 .debug_loc     0x0003ea50      0x5d1 pico/cd/cdc.o
 .debug_loc     0x0003f021      0xda1 pico/cd/cdd.o
 .debug_loc     0x0003fdc2      0x8aa pico/cd/cd_image.o
 .debug_loc     0x0004066c     0x1c6b pico/cd/cue.o
 .debug_loc     0x000422d7      0x97d pico/cd/gfx.o
 .debug_loc     0x00042c54      0x4f0 pico/cd/gfx_dma.o
 .debug_loc     0x00043144      0x573 pico/cd/pcm.o
 .debug_loc     0x000436b7     0x1c4c pico/32x/32x.o
 .debug_loc     0x00045303     0x4119 pico/32x/memory.o
 .debug_loc     0x0004941c     0x2103 pico/32x/draw.o
 .debug_loc     0x0004b51f     0x1554 pico/32x/sh2soc.o
 .debug_loc     0x0004ca73      0xe4c pico/32x/pwm.o
 .debug_loc     0x0004d8bf       0x1e pico/pico/pico.o
 .debug_loc     0x0004d8dd      0x1c7 pico/pico/memory.o
 .debug_loc     0x0004daa4      0x389 pico/pico/xpcm.o
 .debug_loc     0x0004de2d     0x196c pico/carthw/carthw.o
 .debug_loc     0x0004f799      0x1c3 pico/carthw/svp/svp.o
 .debug_loc     0x0004f95c      0x3cf pico/carthw/svp/memory.o
 .debug_loc     0x0004fd2b     0x2f14 pico/carthw/svp/ssp16.o
 .debug_loc     0x00052c3f     0x890a pico/carthw/svp/compiler.o
 .debug_loc     0x0005b549      0xa12 pico/sound/sound.o
 .debug_loc     0x0005bf5b      0x44c pico/sound/sn76496.o
 .debug_loc     0x0005c3a7     0xe00a pico/sound/ym2612.o
 .debug_loc     0x0006a3b1       0x52 cpu/drc/cmn.o
 .debug_loc     0x0006a403      0x2bd cpu/sh2/sh2.o
 .debug_loc     0x0006a6c0    0x1b7c9 cpu/sh2/compiler.o
 .debug_loc     0x00085e89     0x49db cpu/sh2/mame/sh2pico.o
 .debug_loc     0x0008a864       0xa0 /media/BBB/lib/gcc/arm-linux-gnueabihf/4.9.1/libgcc.a(bpabi.o)
 .debug_loc     0x0008a904      0x2c0 /media/BBB/lib/gcc/arm-linux-gnueabihf/4.9.1/libgcc.a(_divdi3.o)
 .debug_loc     0x0008abc4      0x1b9 /media/BBB/lib/gcc/arm-linux-gnueabihf/4.9.1/libgcc.a(_udivdi3.o)

.debug_macinfo
 *(.debug_macinfo)

.debug_weaknames
 *(.debug_weaknames)

.debug_funcnames
 *(.debug_funcnames)

.debug_typenames
 *(.debug_typenames)

.debug_varnames
 *(.debug_varnames)

.debug_pubtypes
 *(.debug_pubtypes)

.debug_ranges   0x00000000    0x128e8
 *(.debug_ranges)
 .debug_ranges  0x00000000      0x168 platform/linux/emu.o
 .debug_ranges  0x00000168       0x70 platform/common/plat_sdl.o
 .debug_ranges  0x000001d8       0x60 platform/libpicofe/plat_sdl.o
 .debug_ranges  0x00000238       0xe0 platform/libpicofe/in_sdl.o
 .debug_ranges  0x00000318       0x20 platform/libpicofe/plat_dummy.o
 .debug_ranges  0x00000338       0x18 platform/common/main.o
 .debug_ranges  0x00000350      0xff0 platform/common/emu.o
 .debug_ranges  0x00001340     0x18d0 platform/common/menu_pico.o
 .debug_ranges  0x00002c10      0x388 platform/common/config_file.o
 .debug_ranges  0x00002f98      0x3e0 platform/libpicofe/input.o
 .debug_ranges  0x00003378       0xe0 platform/libpicofe/readpng.o
 .debug_ranges  0x00003458       0x98 platform/libpicofe/fonts.o
 .debug_ranges  0x000034f0       0xb0 platform/libpicofe/linux/plat.o
 .debug_ranges  0x000035a0       0x40 platform/libpicofe/sndout.o
 .debug_ranges  0x000035e0       0x40 platform/libpicofe/sndout_sdl.o
 .debug_ranges  0x00003620      0x138 platform/common/mp3.o
 .debug_ranges  0x00003758       0x18 platform/common/mp3_dummy.o
 .debug_ranges  0x00003770      0x9c0 zlib/gzio.o
 .debug_ranges  0x00004130       0x10 zlib/inffast.o
 .debug_ranges  0x00004140      0x150 zlib/inflate.o
 .debug_ranges  0x00004290       0x10 zlib/inftrees.o
 .debug_ranges  0x000042a0      0x810 zlib/trees.o
 .debug_ranges  0x00004ab0      0x480 zlib/deflate.o
 .debug_ranges  0x00004f30       0xe8 zlib/crc32.o
 .debug_ranges  0x00005018       0x18 zlib/adler32.o
 .debug_ranges  0x00005030       0x30 zlib/zutil.o
 .debug_ranges  0x00005060       0x48 zlib/compress.o
 .debug_ranges  0x000050a8       0x10 zlib/uncompr.o
 .debug_ranges  0x000050b8      0x3f8 unzip/unzip.o
 .debug_ranges  0x000054b0       0x18 unzip/unzip_stream.o
 .debug_ranges  0x000054c8      0x320 pico/pico.o
 .debug_ranges  0x000057e8      0x688 pico/cart.o
 .debug_ranges  0x00005e70      0xb20 pico/memory.o
 .debug_ranges  0x00006990      0x238 pico/state.o
 .debug_ranges  0x00006bc8       0xb8 pico/sek.o
 .debug_ranges  0x00006c80      0x110 pico/z80if.o
 .debug_ranges  0x00006d90      0x180 pico/videoport.o
 .debug_ranges  0x00006f10       0x60 pico/draw2.o
 .debug_ranges  0x00006f70      0x398 pico/draw.o
 .debug_ranges  0x00007308       0xf8 pico/mode4.o
 .debug_ranges  0x00007400      0x240 pico/eeprom.o
 .debug_ranges  0x00007640      0x110 pico/patch.o
 .debug_ranges  0x00007750      0x160 pico/debug.o
 .debug_ranges  0x000078b0       0xc8 pico/media.o
 .debug_ranges  0x00007978       0xe0 pico/sms.o
 .debug_ranges  0x00007a58      0x4c8 pico/cd/mcd.o
 .debug_ranges  0x00007f20      0x270 pico/cd/memory.o
 .debug_ranges  0x00008190       0x58 pico/cd/sek.o
 .debug_ranges  0x000081e8       0xd8 pico/cd/cdc.o
 .debug_ranges  0x000082c0      0x798 pico/cd/cdd.o
 .debug_ranges  0x00008a58      0x1a0 pico/cd/cd_image.o
 .debug_ranges  0x00008bf8      0x2c8 pico/cd/cue.o
 .debug_ranges  0x00008ec0       0x90 pico/cd/gfx.o
 .debug_ranges  0x00008f50       0x70 pico/cd/gfx_dma.o
 .debug_ranges  0x00008fc0       0x28 pico/cd/pcm.o
 .debug_ranges  0x00008fe8      0x6d0 pico/32x/32x.o
 .debug_ranges  0x000096b8      0x860 pico/32x/memory.o
 .debug_ranges  0x00009f18      0x1b0 pico/32x/draw.o
 .debug_ranges  0x0000a0c8      0x2b0 pico/32x/sh2soc.o
 .debug_ranges  0x0000a378      0x2b8 pico/32x/pwm.o
 .debug_ranges  0x0000a630       0x28 pico/pico/pico.o
 .debug_ranges  0x0000a658       0x48 pico/pico/memory.o
 .debug_ranges  0x0000a6a0       0x48 pico/pico/xpcm.o
 .debug_ranges  0x0000a6e8      0x540 pico/carthw/carthw.o
 .debug_ranges  0x0000ac28       0x38 pico/carthw/svp/svp.o
 .debug_ranges  0x0000ac60       0xa0 pico/carthw/svp/memory.o
 .debug_ranges  0x0000ad00      0x918 pico/carthw/svp/ssp16.o
 .debug_ranges  0x0000b618     0x1a38 pico/carthw/svp/compiler.o
 .debug_ranges  0x0000d050      0x110 pico/sound/sound.o
 .debug_ranges  0x0000d160       0xc0 pico/sound/sn76496.o
 .debug_ranges  0x0000d220      0x8a0 pico/sound/ym2612.o
 .debug_ranges  0x0000dac0       0x30 cpu/drc/cmn.o
 .debug_ranges  0x0000daf0       0x70 cpu/sh2/sh2.o
 .debug_ranges  0x0000db60     0x3dc8 cpu/sh2/compiler.o
 .debug_ranges  0x00011928      0xf78 cpu/sh2/mame/sh2pico.o
 .debug_ranges  0x000128a0       0x28 /media/BBB/lib/gcc/arm-linux-gnueabihf/4.9.1/libgcc.a(_divdi3.o)
 .debug_ranges  0x000128c8       0x20 /media/BBB/lib/gcc/arm-linux-gnueabihf/4.9.1/libgcc.a(_udivdi3.o)

.gnu.attributes
 *(.gnu.attributes)

.note.gnu.arm.ident
 *(.note.gnu.arm.ident)

/DISCARD/
 *(.note.GNU-stack)
 *(.gnu_debuglink)
 *(.gnu.lto_*)
OUTPUT(PicoDrive elf32-littlearm)
